(lp0
(dp1
S'random35'
p2
(dp3
S'is_rep'
p4
I00
sS'num_examples'
p5
F0.34615384615384615
sS'p_rep'
p6
F0.7692307692307692
ssS'nn'
p7
(dp8
g4
I01
sg5
F0.32051282051282054
sg6
F1.0
ssS'random80'
p9
(dp10
g4
I01
sg5
F0.7948717948717948
sg6
F1.0
ssS'cegis'
p11
(dp12
g4
I00
sg5
F0.08974358974358974
sg6
F0.3076923076923077
ssS'hasse'
p13
(dp14
g4
I01
sg5
F0.11538461538461539
sg6
F1.0
ssa(dp15
g2
(dp16
g4
I00
sg5
F0.3333333333333333
sg6
F0.5
ssg7
(dp17
g4
I01
sg5
F0.5
sg6
F1.0
ssg9
(dp18
g4
I00
sg5
F0.8
sg6
F0.9666666666666667
ssg11
(dp19
g4
I00
sg5
F0.4
sg6
F0.6666666666666667
ssg13
(dp20
g4
I01
sg5
F0.3333333333333333
sg6
F1.0
ssa(dp21
g2
(dp22
g4
I00
sg5
F0.3382352941176471
sg6
F0.7647058823529411
ssg7
(dp23
g4
I01
sg5
F0.35294117647058826
sg6
F1.0
ssg9
(dp24
g4
I00
sg5
F0.7941176470588235
sg6
F0.9852941176470589
ssg11
(dp25
g4
I00
sg5
F0.19117647058823528
sg6
F0.4411764705882353
ssg13
(dp26
g4
I01
sg5
F0.14705882352941177
sg6
F1.0
ssa(dp27
g2
(dp28
g4
I00
sg5
F0.3404255319148936
sg6
F0.6170212765957447
ssg7
(dp29
g4
I00
sg5
F0.40425531914893614
sg6
F0.9787234042553191
ssg9
(dp30
g4
I00
sg5
F0.7872340425531915
sg6
F0.9787234042553191
ssg11
(dp31
g4
I00
sg5
F0.14893617021276595
sg6
F0.3829787234042553
ssg13
(dp32
g4
I01
sg5
F0.23404255319148937
sg6
F1.0
ssa(dp33
g2
(dp34
g4
I00
sg5
F0.3382352941176471
sg6
F0.6176470588235294
ssg7
(dp35
g4
I01
sg5
F0.3382352941176471
sg6
F1.0
ssg9
(dp36
g4
I01
sg5
F0.7941176470588235
sg6
F1.0
ssg11
(dp37
g4
I00
sg5
F0.22058823529411764
sg6
F0.8235294117647058
ssg13
(dp38
g4
I01
sg5
F0.1323529411764706
sg6
F1.0
ssa(dp39
g2
(dp40
g4
I00
sg5
F0.3409090909090909
sg6
F0.8068181818181819
ssg7
(dp41
g4
I01
sg5
F0.3068181818181818
sg6
F1.0
ssg9
(dp42
g4
I01
sg5
F0.7954545454545454
sg6
F1.0
ssg11
(dp43
g4
I00
sg5
F0.19318181818181818
sg6
F0.8068181818181819
ssg13
(dp44
g4
I01
sg5
F0.10227272727272728
sg6
F1.0
ssa(dp45
g2
(dp46
g4
I00
sg5
F0.345679012345679
sg6
F0.7407407407407407
ssg7
(dp47
g4
I01
sg5
F0.30864197530864196
sg6
F1.0
ssg9
(dp48
g4
I01
sg5
F0.7901234567901234
sg6
F1.0
ssg11
(dp49
g4
I00
sg5
F0.13580246913580246
sg6
F0.5185185185185186
ssg13
(dp50
g4
I01
sg5
F0.1111111111111111
sg6
F1.0
ssa(dp51
g2
(dp52
g4
I00
sg5
F0.35
sg6
F0.7375
ssg7
(dp53
g4
I01
sg5
F0.2875
sg6
F1.0
ssg9
(dp54
g4
I00
sg5
F0.8
sg6
F0.95
ssg11
(dp55
g4
I00
sg5
F0.125
sg6
F0.42500000000000004
ssg13
(dp56
g4
I01
sg5
F0.1125
sg6
F1.0
ssa(dp57
g2
(dp58
g4
I00
sg5
F0.34782608695652173
sg6
F0.8405797101449275
ssg7
(dp59
g4
I01
sg5
F0.36231884057971014
sg6
F1.0
ssg9
(dp60
g4
I01
sg5
F0.7971014492753623
sg6
F1.0
ssg11
(dp61
g4
I00
sg5
F0.15942028985507245
sg6
F0.5652173913043479
ssg13
(dp62
g4
I01
sg5
F0.13043478260869565
sg6
F1.0
ssa(dp63
g2
(dp64
g4
I00
sg5
F0.3333333333333333
sg6
F0.6296296296296297
ssg7
(dp65
g4
I01
sg5
F0.42592592592592593
sg6
F1.0
ssg9
(dp66
g4
I01
sg5
F0.7962962962962963
sg6
F1.0
ssg11
(dp67
g4
I00
sg5
F0.25925925925925924
sg6
F0.7407407407407407
ssg13
(dp68
g4
I01
sg5
F0.16666666666666666
sg6
F1.0
ssa(dp69
g2
(dp70
g4
I00
sg5
F0.3466666666666667
sg6
F0.84
ssg7
(dp71
g4
I01
sg5
F0.30666666666666664
sg6
F1.0
ssg9
(dp72
g4
I01
sg5
F0.8
sg6
F1.0
ssg11
(dp73
g4
I00
sg5
F0.14666666666666667
sg6
F0.5333333333333333
ssg13
(dp74
g4
I01
sg5
F0.12
sg6
F1.0
ssa(dp75
g2
(dp76
g4
I00
sg5
F0.3492063492063492
sg6
F0.6984126984126984
ssg7
(dp77
g4
I00
sg5
F0.3492063492063492
sg6
F0.9841269841269842
ssg9
(dp78
g4
I00
sg5
F0.7936507936507936
sg6
F0.9841269841269842
ssg11
(dp79
g4
I00
sg5
F0.15873015873015872
sg6
F0.46031746031746035
ssg13
(dp80
g4
I01
sg5
F0.15873015873015872
sg6
F1.0
ssa(dp81
g2
(dp82
g4
I00
sg5
F0.3466666666666667
sg6
F0.9066666666666666
ssg7
(dp83
g4
I01
sg5
F0.28
sg6
F1.0
ssg9
(dp84
g4
I01
sg5
F0.8
sg6
F1.0
ssg11
(dp85
g4
I00
sg5
F0.16
sg6
F0.52
ssg13
(dp86
g4
I01
sg5
F0.12
sg6
F1.0
ssa(dp87
g2
(dp88
g4
I00
sg5
F0.3473684210526316
sg6
F0.9368421052631579
ssg7
(dp89
g4
I01
sg5
F0.25263157894736843
sg6
F1.0
ssg9
(dp90
g4
I01
sg5
F0.8
sg6
F1.0
ssg11
(dp91
g4
I00
sg5
F0.11578947368421053
sg6
F0.41052631578947374
ssg13
(dp92
g4
I01
sg5
F0.09473684210526316
sg6
F1.0
ssa(dp93
g2
(dp94
g4
I00
sg5
F0.3492063492063492
sg6
F0.6825396825396826
ssg7
(dp95
g4
I01
sg5
F0.31746031746031744
sg6
F1.0
ssg9
(dp96
g4
I00
sg5
F0.7936507936507936
sg6
F0.9841269841269842
ssg11
(dp97
g4
I00
sg5
F0.15873015873015872
sg6
F0.46031746031746035
ssg13
(dp98
g4
I01
sg5
F0.1746031746031746
sg6
F1.0
ssa(dp99
g2
(dp100
g4
I00
sg5
F0.3404255319148936
sg6
F0.5957446808510638
ssg7
(dp101
g4
I01
sg5
F0.40425531914893614
sg6
F1.0
ssg9
(dp102
g4
I00
sg5
F0.7872340425531915
sg6
F0.9787234042553191
ssg11
(dp103
g4
I00
sg5
F0.3404255319148936
sg6
F0.9148936170212766
ssg13
(dp104
g4
I01
sg5
F0.23404255319148937
sg6
F1.0
ssa(dp105
g2
(dp106
g4
I00
sg5
F0.3402061855670103
sg6
F0.8762886597938144
ssg7
(dp107
g4
I01
sg5
F0.26804123711340205
sg6
F1.0
ssg9
(dp108
g4
I00
sg5
F0.7938144329896907
sg6
F0.9587628865979382
ssg11
(dp109
g4
I00
sg5
F0.1134020618556701
sg6
F0.5567010309278351
ssg13
(dp110
g4
I01
sg5
F0.09278350515463918
sg6
F1.0
ssa(dp111
g2
(dp112
g4
I00
sg5
F0.34375
sg6
F0.703125
ssg7
(dp113
g4
I01
sg5
F0.296875
sg6
F1.0
ssg9
(dp114
g4
I00
sg5
F0.796875
sg6
F0.96875
ssg11
(dp115
g4
I00
sg5
F0.21875
sg6
F0.546875
ssg13
(dp116
g4
I01
sg5
F0.15625
sg6
F1.0
ssa(dp117
g2
(dp118
g4
I00
sg5
F0.3333333333333333
sg6
F0.6111111111111112
ssg7
(dp119
g4
I00
sg5
F0.4444444444444444
sg6
F0.9722222222222222
ssg9
(dp120
g4
I00
sg5
F0.7777777777777778
sg6
F0.8611111111111112
ssg11
(dp121
g4
I00
sg5
F0.19444444444444445
sg6
F0.33333333333333337
ssg13
(dp122
g4
I01
sg5
F0.3333333333333333
sg6
F1.0
ssa(dp123
g2
(dp124
g4
I00
sg5
F0.33783783783783783
sg6
F0.8243243243243243
ssg7
(dp125
g4
I01
sg5
F0.2972972972972973
sg6
F1.0
ssg9
(dp126
g4
I00
sg5
F0.7972972972972973
sg6
F0.972972972972973
ssg11
(dp127
g4
I00
sg5
F0.16216216216216217
sg6
F0.6891891891891893
ssg13
(dp128
g4
I01
sg5
F0.13513513513513514
sg6
F1.0
ssa(dp129
g2
(dp130
g4
I00
sg5
F0.35
sg6
F0.8333333333333334
ssg7
(dp131
g4
I01
sg5
F0.3
sg6
F1.0
ssg9
(dp132
g4
I00
sg5
F0.8
sg6
F0.9666666666666667
ssg11
(dp133
g4
I00
sg5
F0.18333333333333332
sg6
F0.7
ssg13
(dp134
g4
I01
sg5
F0.18333333333333332
sg6
F1.0
ssa(dp135
g2
(dp136
g4
I00
sg5
F0.34375
sg6
F0.7083333333333333
ssg7
(dp137
g4
I01
sg5
F0.2916666666666667
sg6
F1.0
ssg9
(dp138
g4
I01
sg5
F0.7916666666666666
sg6
F1.0
ssg11
(dp139
g4
I00
sg5
F0.13541666666666666
sg6
F0.41666666666666663
ssg13
(dp140
g4
I01
sg5
F0.09375
sg6
F1.0
ssa(dp141
g2
(dp142
g4
I00
sg5
F0.3333333333333333
sg6
F0.5454545454545454
ssg7
(dp143
g4
I01
sg5
F0.5151515151515151
sg6
F1.0
ssg9
(dp144
g4
I00
sg5
F0.7878787878787878
sg6
F0.9696969696969697
ssg11
(dp145
g4
I00
sg5
F0.18181818181818182
sg6
F0.3939393939393939
ssg13
(dp146
g4
I01
sg5
F0.42424242424242425
sg6
F1.0
ssa(dp147
g2
(dp148
g4
I00
sg5
F0.34375
sg6
F0.53125
ssg7
(dp149
g4
I01
sg5
F0.46875
sg6
F1.0
ssg9
(dp150
g4
I00
sg5
F0.78125
sg6
F0.9375
ssg11
(dp151
g4
I00
sg5
F0.15625
sg6
F0.34375
ssg13
(dp152
g4
I01
sg5
F0.3125
sg6
F1.0
ssa(dp153
g2
(dp154
g4
I00
sg5
F0.3404255319148936
sg6
F0.6808510638297872
ssg7
(dp155
g4
I01
sg5
F0.3617021276595745
sg6
F1.0
ssg9
(dp156
g4
I00
sg5
F0.7872340425531915
sg6
F0.8936170212765957
ssg11
(dp157
g4
I00
sg5
F0.2765957446808511
sg6
F0.574468085106383
ssg13
(dp158
g4
I01
sg5
F0.2553191489361702
sg6
F1.0
ssa(dp159
g2
(dp160
g4
I00
sg5
F0.3402061855670103
sg6
F0.9175257731958762
ssg7
(dp161
g4
I01
sg5
F0.27835051546391754
sg6
F1.0
ssg9
(dp162
g4
I00
sg5
F0.7938144329896907
sg6
F0.979381443298969
ssg11
(dp163
g4
I00
sg5
F0.09278350515463918
sg6
F0.5051546391752577
ssg13
(dp164
g4
I01
sg5
F0.09278350515463918
sg6
F1.0
ssa(dp165
g2
(dp166
g4
I00
sg5
F0.3409090909090909
sg6
F0.5454545454545454
ssg7
(dp167
g4
I01
sg5
F0.36363636363636365
sg6
F1.0
ssg9
(dp168
g4
I00
sg5
F0.7954545454545454
sg6
F0.9772727272727273
ssg11
(dp169
g4
I00
sg5
F0.22727272727272727
sg6
F0.5227272727272727
ssg13
(dp170
g4
I01
sg5
F0.22727272727272727
sg6
F1.0
ssa(dp171
g2
(dp172
g4
I00
sg5
F0.3333333333333333
sg6
F0.6470588235294117
ssg7
(dp173
g4
I01
sg5
F0.35294117647058826
sg6
F1.0
ssg9
(dp174
g4
I00
sg5
F0.7843137254901961
sg6
F0.9803921568627451
ssg11
(dp175
g4
I00
sg5
F0.23529411764705882
sg6
F0.8235294117647058
ssg13
(dp176
g4
I01
sg5
F0.19607843137254902
sg6
F1.0
ssa(dp177
g2
(dp178
g4
I00
sg5
F0.34
sg6
F0.72
ssg7
(dp179
g4
I01
sg5
F0.38
sg6
F1.0
ssg9
(dp180
g4
I00
sg5
F0.8
sg6
F0.96
ssg11
(dp181
g4
I00
sg5
F0.28
sg6
F0.78
ssg13
(dp182
g4
I01
sg5
F0.24
sg6
F1.0
ssa(dp183
g2
(dp184
g4
I00
sg5
F0.3387096774193548
sg6
F0.8709677419354839
ssg7
(dp185
g4
I01
sg5
F0.4032258064516129
sg6
F1.0
ssg9
(dp186
g4
I01
sg5
F0.7903225806451613
sg6
F1.0
ssg11
(dp187
g4
I00
sg5
F0.1935483870967742
sg6
F0.532258064516129
ssg13
(dp188
g4
I01
sg5
F0.14516129032258066
sg6
F1.0
ssa(dp189
g2
(dp190
g4
I00
sg5
F0.34545454545454546
sg6
F0.8909090909090909
ssg7
(dp191
g4
I01
sg5
F0.34545454545454546
sg6
F1.0
ssg9
(dp192
g4
I00
sg5
F0.8
sg6
F0.9818181818181818
ssg11
(dp193
g4
I00
sg5
F0.21818181818181817
sg6
F0.8
ssg13
(dp194
g4
I01
sg5
F0.18181818181818182
sg6
F1.0
ssa(dp195
g2
(dp196
g4
I00
sg5
F0.3442622950819672
sg6
F0.639344262295082
ssg7
(dp197
g4
I01
sg5
F0.3442622950819672
sg6
F1.0
ssg9
(dp198
g4
I00
sg5
F0.7868852459016393
sg6
F0.9344262295081968
ssg11
(dp199
g4
I00
sg5
F0.11475409836065574
sg6
F0.2622950819672131
ssg13
(dp200
g4
I01
sg5
F0.14754098360655737
sg6
F1.0
ssa(dp201
g2
(dp202
g4
I00
sg5
F0.34146341463414637
sg6
F0.8048780487804879
ssg7
(dp203
g4
I01
sg5
F0.2926829268292683
sg6
F1.0
ssg9
(dp204
g4
I00
sg5
F0.7926829268292683
sg6
F0.9878048780487805
ssg11
(dp205
g4
I00
sg5
F0.15853658536585366
sg6
F0.47560975609756095
ssg13
(dp206
g4
I01
sg5
F0.10975609756097561
sg6
F1.0
ssa(dp207
g2
(dp208
g4
I00
sg5
F0.3225806451612903
sg6
F0.5483870967741935
ssg7
(dp209
g4
I01
sg5
F0.5161290322580645
sg6
F1.0
ssg9
(dp210
g4
I00
sg5
F0.7741935483870968
sg6
F0.8387096774193549
ssg11
(dp211
g4
I00
sg5
F0.3870967741935484
sg6
F0.7096774193548387
ssg13
(dp212
g4
I01
sg5
F0.3225806451612903
sg6
F1.0
ssa(dp213
g2
(dp214
g4
I00
sg5
F0.33783783783783783
sg6
F0.8243243243243243
ssg7
(dp215
g4
I01
sg5
F0.32432432432432434
sg6
F1.0
ssg9
(dp216
g4
I00
sg5
F0.7972972972972973
sg6
F0.972972972972973
ssg11
(dp217
g4
I00
sg5
F0.14864864864864866
sg6
F0.32432432432432434
ssg13
(dp218
g4
I01
sg5
F0.12162162162162163
sg6
F1.0
ssa(dp219
g2
(dp220
g4
I00
sg5
F0.3382352941176471
sg6
F0.7058823529411764
ssg7
(dp221
g4
I01
sg5
F0.3382352941176471
sg6
F1.0
ssg9
(dp222
g4
I01
sg5
F0.7941176470588235
sg6
F1.0
ssg11
(dp223
g4
I00
sg5
F0.1323529411764706
sg6
F0.32352941176470584
ssg13
(dp224
g4
I01
sg5
F0.16176470588235295
sg6
F1.0
ssa(dp225
g2
(dp226
g4
I00
sg5
F0.35
sg6
F0.75
ssg7
(dp227
g4
I01
sg5
F0.35
sg6
F1.0
ssg9
(dp228
g4
I00
sg5
F0.8
sg6
F0.9833333333333333
ssg11
(dp229
g4
I00
sg5
F0.16666666666666666
sg6
F0.3666666666666667
ssg13
(dp230
g4
I01
sg5
F0.16666666666666666
sg6
F1.0
ssa(dp231
g2
(dp232
g4
I00
sg5
F0.3333333333333333
sg6
F0.6842105263157895
ssg7
(dp233
g4
I01
sg5
F0.40350877192982454
sg6
F1.0
ssg9
(dp234
g4
I01
sg5
F0.7894736842105263
sg6
F1.0
ssg11
(dp235
g4
I00
sg5
F0.15789473684210525
sg6
F0.45614035087719296
ssg13
(dp236
g4
I01
sg5
F0.21052631578947367
sg6
F1.0
ssa(dp237
g2
(dp238
g4
I00
sg5
F0.3384615384615385
sg6
F0.676923076923077
ssg7
(dp239
g4
I01
sg5
F0.3076923076923077
sg6
F1.0
ssg9
(dp240
g4
I00
sg5
F0.8
sg6
F0.9692307692307692
ssg11
(dp241
g4
I00
sg5
F0.18461538461538463
sg6
F0.7384615384615385
ssg13
(dp242
g4
I01
sg5
F0.15384615384615385
sg6
F1.0
ssa(dp243
g2
(dp244
g4
I00
sg5
F0.34328358208955223
sg6
F0.7462686567164178
ssg7
(dp245
g4
I01
sg5
F0.31343283582089554
sg6
F1.0
ssg9
(dp246
g4
I00
sg5
F0.7910447761194029
sg6
F0.9850746268656716
ssg11
(dp247
g4
I00
sg5
F0.11940298507462686
sg6
F0.417910447761194
ssg13
(dp248
g4
I01
sg5
F0.14925373134328357
sg6
F1.0
ssa(dp249
g2
(dp250
g4
I00
sg5
F0.3402061855670103
sg6
F0.7216494845360825
ssg7
(dp251
g4
I01
sg5
F0.27835051546391754
sg6
F1.0
ssg9
(dp252
g4
I01
sg5
F0.7938144329896907
sg6
F1.0
ssg11
(dp253
g4
I00
sg5
F0.09278350515463918
sg6
F0.38144329896907214
ssg13
(dp254
g4
I01
sg5
F0.09278350515463918
sg6
F1.0
ssa(dp255
g2
(dp256
g4
I00
sg5
F0.34375
sg6
F0.734375
ssg7
(dp257
g4
I01
sg5
F0.328125
sg6
F1.0
ssg9
(dp258
g4
I01
sg5
F0.796875
sg6
F1.0
ssg11
(dp259
g4
I00
sg5
F0.265625
sg6
F0.765625
ssg13
(dp260
g4
I01
sg5
F0.203125
sg6
F1.0
ssa(dp261
g2
(dp262
g4
I00
sg5
F0.3466666666666667
sg6
F0.7333333333333334
ssg7
(dp263
g4
I01
sg5
F0.3466666666666667
sg6
F1.0
ssg9
(dp264
g4
I00
sg5
F0.8
sg6
F0.9866666666666667
ssg11
(dp265
g4
I00
sg5
F0.21333333333333335
sg6
F0.6266666666666667
ssg13
(dp266
g4
I01
sg5
F0.12
sg6
F1.0
ssa(dp267
g2
(dp268
g4
I00
sg5
F0.3380281690140845
sg6
F0.8732394366197183
ssg7
(dp269
g4
I01
sg5
F0.3380281690140845
sg6
F1.0
ssg9
(dp270
g4
I00
sg5
F0.7887323943661971
sg6
F0.971830985915493
ssg11
(dp271
g4
I00
sg5
F0.15492957746478872
sg6
F0.5070422535211268
ssg13
(dp272
g4
I01
sg5
F0.1267605633802817
sg6
F1.0
ssa(dp273
g2
(dp274
g4
I00
sg5
F0.35
sg6
F0.8166666666666667
ssg7
(dp275
g4
I01
sg5
F0.31666666666666665
sg6
F1.0
ssg9
(dp276
g4
I00
sg5
F0.8
sg6
F0.9833333333333333
ssg11
(dp277
g4
I00
sg5
F0.2
sg6
F0.5666666666666667
ssg13
(dp278
g4
I01
sg5
F0.18333333333333332
sg6
F1.0
ssa(dp279
g2
(dp280
g4
I00
sg5
F0.34210526315789475
sg6
F0.5
ssg7
(dp281
g4
I00
sg5
F0.47368421052631576
sg6
F0.9736842105263158
ssg9
(dp282
g4
I00
sg5
F0.7894736842105263
sg6
F0.9210526315789473
ssg11
(dp283
g4
I00
sg5
F0.21052631578947367
sg6
F0.3421052631578947
ssg13
(dp284
g4
I01
sg5
F0.3157894736842105
sg6
F1.0
ssa(dp285
g2
(dp286
g4
I00
sg5
F0.3392857142857143
sg6
F0.7142857142857143
ssg7
(dp287
g4
I00
sg5
F0.3392857142857143
sg6
F0.9821428571428571
ssg9
(dp288
g4
I00
sg5
F0.7857142857142857
sg6
F0.9285714285714286
ssg11
(dp289
g4
I00
sg5
F0.19642857142857142
sg6
F0.5535714285714286
ssg13
(dp290
g4
I01
sg5
F0.17857142857142858
sg6
F1.0
ssa(dp291
g2
(dp292
g4
I00
sg5
F0.34210526315789475
sg6
F0.6578947368421053
ssg7
(dp293
g4
I01
sg5
F0.5
sg6
F1.0
ssg9
(dp294
g4
I01
sg5
F0.7894736842105263
sg6
F1.0
ssg11
(dp295
g4
I00
sg5
F0.34210526315789475
sg6
F0.7894736842105263
ssg13
(dp296
g4
I01
sg5
F0.3157894736842105
sg6
F1.0
ssa(dp297
g2
(dp298
g4
I00
sg5
F0.34615384615384615
sg6
F0.6923076923076923
ssg7
(dp299
g4
I01
sg5
F0.4230769230769231
sg6
F1.0
ssg9
(dp300
g4
I00
sg5
F0.7884615384615384
sg6
F0.9230769230769231
ssg11
(dp301
g4
I00
sg5
F0.19230769230769232
sg6
F0.42307692307692313
ssg13
(dp302
g4
I01
sg5
F0.19230769230769232
sg6
F1.0
ssa(dp303
g2
(dp304
g4
I00
sg5
F0.35
sg6
F0.8
ssg7
(dp305
g4
I01
sg5
F0.25
sg6
F1.0
ssg9
(dp306
g4
I00
sg5
F0.8
sg6
F0.975
ssg11
(dp307
g4
I00
sg5
F0.1625
sg6
F0.75
ssg13
(dp308
g4
I01
sg5
F0.1125
sg6
F1.0
ssa(dp309
g2
(dp310
g4
I00
sg5
F0.3434343434343434
sg6
F0.8383838383838383
ssg7
(dp311
g4
I01
sg5
F0.25252525252525254
sg6
F1.0
ssg9
(dp312
g4
I00
sg5
F0.797979797979798
sg6
F0.9797979797979798
ssg11
(dp313
g4
I00
sg5
F0.13131313131313133
sg6
F0.5757575757575757
ssg13
(dp314
g4
I01
sg5
F0.09090909090909091
sg6
F1.0
ssa(dp315
g2
(dp316
g4
I00
sg5
F0.34065934065934067
sg6
F0.8461538461538461
ssg7
(dp317
g4
I01
sg5
F0.26373626373626374
sg6
F1.0
ssg9
(dp318
g4
I00
sg5
F0.7912087912087912
sg6
F0.9560439560439561
ssg11
(dp319
g4
I00
sg5
F0.18681318681318682
sg6
F0.6923076923076923
ssg13
(dp320
g4
I01
sg5
F0.0989010989010989
sg6
F1.0
ssa(dp321
g2
(dp322
g4
I00
sg5
F0.34375
sg6
F0.7708333333333334
ssg7
(dp323
g4
I01
sg5
F0.2916666666666667
sg6
F1.0
ssg9
(dp324
g4
I01
sg5
F0.7916666666666666
sg6
F1.0
ssg11
(dp325
g4
I00
sg5
F0.08333333333333333
sg6
F0.42708333333333337
ssg13
(dp326
g4
I01
sg5
F0.09375
sg6
F1.0
ssa(dp327
g2
(dp328
g4
I00
sg5
F0.34545454545454546
sg6
F0.7454545454545455
ssg7
(dp329
g4
I01
sg5
F0.36363636363636365
sg6
F1.0
ssg9
(dp330
g4
I00
sg5
F0.8
sg6
F0.9818181818181818
ssg11
(dp331
g4
I00
sg5
F0.16363636363636364
sg6
F0.6
ssg13
(dp332
g4
I01
sg5
F0.2
sg6
F1.0
ssa(dp333
g2
(dp334
g4
I00
sg5
F0.34285714285714286
sg6
F0.5142857142857142
ssg7
(dp335
g4
I01
sg5
F0.5428571428571428
sg6
F1.0
ssg9
(dp336
g4
I00
sg5
F0.8
sg6
F0.9142857142857143
ssg11
(dp337
g4
I00
sg5
F0.34285714285714286
sg6
F0.6285714285714286
ssg13
(dp338
g4
I01
sg5
F0.37142857142857144
sg6
F1.0
ssa(dp339
g2
(dp340
g4
I00
sg5
F0.3469387755102041
sg6
F0.7857142857142857
ssg7
(dp341
g4
I01
sg5
F0.2653061224489796
sg6
F1.0
ssg9
(dp342
g4
I01
sg5
F0.7959183673469388
sg6
F1.0
ssg11
(dp343
g4
I00
sg5
F0.10204081632653061
sg6
F0.4285714285714286
ssg13
(dp344
g4
I01
sg5
F0.09183673469387756
sg6
F1.0
ssa(dp345
g2
(dp346
g4
I00
sg5
F0.3469387755102041
sg6
F0.7551020408163265
ssg7
(dp347
g4
I01
sg5
F0.3673469387755102
sg6
F1.0
ssg9
(dp348
g4
I00
sg5
F0.7959183673469388
sg6
F0.9591836734693877
ssg11
(dp349
g4
I00
sg5
F0.22448979591836735
sg6
F0.6326530612244898
ssg13
(dp350
g4
I01
sg5
F0.20408163265306123
sg6
F1.0
ssa(dp351
g2
(dp352
g4
I00
sg5
F0.35
sg6
F0.7
ssg7
(dp353
g4
I01
sg5
F0.35
sg6
F1.0
ssg9
(dp354
g4
I00
sg5
F0.8
sg6
F0.9833333333333333
ssg11
(dp355
g4
I00
sg5
F0.26666666666666666
sg6
F0.8333333333333334
ssg13
(dp356
g4
I01
sg5
F0.15
sg6
F1.0
ssa(dp357
g2
(dp358
g4
I00
sg5
F0.34285714285714286
sg6
F0.4571428571428572
ssg7
(dp359
g4
I01
sg5
F0.5142857142857142
sg6
F1.0
ssg9
(dp360
g4
I00
sg5
F0.8
sg6
F0.9714285714285714
ssg11
(dp361
g4
I00
sg5
F0.42857142857142855
sg6
F0.8857142857142857
ssg13
(dp362
g4
I01
sg5
F0.34285714285714286
sg6
F1.0
ssa(dp363
g2
(dp364
g4
I00
sg5
F0.34831460674157305
sg6
F0.8202247191011236
ssg7
(dp365
g4
I01
sg5
F0.2808988764044944
sg6
F1.0
ssg9
(dp366
g4
I00
sg5
F0.797752808988764
sg6
F0.9775280898876404
ssg11
(dp367
g4
I00
sg5
F0.16853932584269662
sg6
F0.4719101123595506
ssg13
(dp368
g4
I01
sg5
F0.10112359550561797
sg6
F1.0
ssa(dp369
g2
(dp370
g4
I00
sg5
F0.3380281690140845
sg6
F0.7183098591549295
ssg7
(dp371
g4
I00
sg5
F0.28169014084507044
sg6
F0.971830985915493
ssg9
(dp372
g4
I00
sg5
F0.7887323943661971
sg6
F0.9859154929577465
ssg11
(dp373
g4
I00
sg5
F0.18309859154929578
sg6
F0.5070422535211268
ssg13
(dp374
g4
I01
sg5
F0.15492957746478872
sg6
F1.0
ssa(dp375
g2
(dp376
g4
I00
sg5
F0.3469387755102041
sg6
F0.8061224489795918
ssg7
(dp377
g4
I01
sg5
F0.3163265306122449
sg6
F1.0
ssg9
(dp378
g4
I01
sg5
F0.7959183673469388
sg6
F1.0
ssg11
(dp379
g4
I00
sg5
F0.11224489795918367
sg6
F0.44897959183673475
ssg13
(dp380
g4
I01
sg5
F0.09183673469387756
sg6
F1.0
ssa(dp381
g2
(dp382
g4
I00
sg5
F0.3409090909090909
sg6
F0.6136363636363636
ssg7
(dp383
g4
I00
sg5
F0.38636363636363635
sg6
F0.9772727272727273
ssg9
(dp384
g4
I00
sg5
F0.7954545454545454
sg6
F0.9318181818181819
ssg11
(dp385
g4
I00
sg5
F0.3181818181818182
sg6
F0.7045454545454546
ssg13
(dp386
g4
I01
sg5
F0.25
sg6
F1.0
ssa(dp387
g2
(dp388
g4
I00
sg5
F0.3333333333333333
sg6
F0.6666666666666667
ssg7
(dp389
g4
I01
sg5
F0.4523809523809524
sg6
F1.0
ssg9
(dp390
g4
I01
sg5
F0.7857142857142857
sg6
F1.0
ssg11
(dp391
g4
I00
sg5
F0.2619047619047619
sg6
F0.5952380952380952
ssg13
(dp392
g4
I01
sg5
F0.2857142857142857
sg6
F1.0
ssa(dp393
g2
(dp394
g4
I00
sg5
F0.3409090909090909
sg6
F0.5681818181818181
ssg7
(dp395
g4
I01
sg5
F0.36363636363636365
sg6
F1.0
ssg9
(dp396
g4
I00
sg5
F0.7954545454545454
sg6
F0.9318181818181819
ssg11
(dp397
g4
I00
sg5
F0.3181818181818182
sg6
F0.6818181818181819
ssg13
(dp398
g4
I01
sg5
F0.2727272727272727
sg6
F1.0
ssa(dp399
g2
(dp400
g4
I00
sg5
F0.3333333333333333
sg6
F0.641025641025641
ssg7
(dp401
g4
I01
sg5
F0.46153846153846156
sg6
F1.0
ssg9
(dp402
g4
I00
sg5
F0.7948717948717948
sg6
F0.9487179487179487
ssg11
(dp403
g4
I00
sg5
F0.3333333333333333
sg6
F0.6666666666666667
ssg13
(dp404
g4
I01
sg5
F0.3333333333333333
sg6
F1.0
ssa(dp405
g2
(dp406
g4
I00
sg5
F0.35
sg6
F0.8125
ssg7
(dp407
g4
I01
sg5
F0.3
sg6
F1.0
ssg9
(dp408
g4
I01
sg5
F0.8
sg6
F1.0
ssg11
(dp409
g4
I00
sg5
F0.1125
sg6
F0.375
ssg13
(dp410
g4
I01
sg5
F0.125
sg6
F1.0
ssa(dp411
g2
(dp412
g4
I00
sg5
F0.34146341463414637
sg6
F0.7317073170731707
ssg7
(dp413
g4
I01
sg5
F0.25609756097560976
sg6
F1.0
ssg9
(dp414
g4
I01
sg5
F0.7926829268292683
sg6
F1.0
ssg11
(dp415
g4
I00
sg5
F0.14634146341463414
sg6
F0.5121951219512195
ssg13
(dp416
g4
I01
sg5
F0.10975609756097561
sg6
F1.0
ssa(dp417
g2
(dp418
g4
I00
sg5
F0.3384615384615385
sg6
F0.5538461538461539
ssg7
(dp419
g4
I01
sg5
F0.27692307692307694
sg6
F1.0
ssg9
(dp420
g4
I01
sg5
F0.8
sg6
F1.0
ssg11
(dp421
g4
I00
sg5
F0.18461538461538463
sg6
F0.49230769230769234
ssg13
(dp422
g4
I01
sg5
F0.15384615384615385
sg6
F1.0
ssa(dp423
g2
(dp424
g4
I00
sg5
F0.3434343434343434
sg6
F0.6565656565656566
ssg7
(dp425
g4
I01
sg5
F0.2828282828282828
sg6
F1.0
ssg9
(dp426
g4
I01
sg5
F0.797979797979798
sg6
F1.0
ssg11
(dp427
g4
I00
sg5
F0.13131313131313133
sg6
F0.4747474747474747
ssg13
(dp428
g4
I01
sg5
F0.09090909090909091
sg6
F1.0
ssa(dp429
g2
(dp430
g4
I00
sg5
F0.3434343434343434
sg6
F0.7575757575757576
ssg7
(dp431
g4
I01
sg5
F0.26262626262626265
sg6
F1.0
ssg9
(dp432
g4
I01
sg5
F0.797979797979798
sg6
F1.0
ssg11
(dp433
g4
I00
sg5
F0.12121212121212122
sg6
F0.4040404040404041
ssg13
(dp434
g4
I01
sg5
F0.09090909090909091
sg6
F1.0
ssa(dp435
g2
(dp436
g4
I00
sg5
F0.3492063492063492
sg6
F0.7142857142857143
ssg7
(dp437
g4
I01
sg5
F0.36507936507936506
sg6
F1.0
ssg9
(dp438
g4
I01
sg5
F0.7936507936507936
sg6
F1.0
ssg11
(dp439
g4
I00
sg5
F0.20634920634920634
sg6
F0.5555555555555556
ssg13
(dp440
g4
I01
sg5
F0.15873015873015872
sg6
F1.0
ssa(dp441
g2
(dp442
g4
I00
sg5
F0.34328358208955223
sg6
F0.7761194029850746
ssg7
(dp443
g4
I01
sg5
F0.3283582089552239
sg6
F1.0
ssg9
(dp444
g4
I01
sg5
F0.7910447761194029
sg6
F1.0
ssg11
(dp445
g4
I00
sg5
F0.19402985074626866
sg6
F0.7611940298507462
ssg13
(dp446
g4
I01
sg5
F0.13432835820895522
sg6
F1.0
ssa(dp447
g2
(dp448
g4
I00
sg5
F0.34065934065934067
sg6
F0.7582417582417582
ssg7
(dp449
g4
I01
sg5
F0.2857142857142857
sg6
F1.0
ssg9
(dp450
g4
I01
sg5
F0.7912087912087912
sg6
F1.0
ssg11
(dp451
g4
I00
sg5
F0.10989010989010989
sg6
F0.4725274725274725
ssg13
(dp452
g4
I01
sg5
F0.0989010989010989
sg6
F1.0
ssa(dp453
g2
(dp454
g4
I00
sg5
F0.34615384615384615
sg6
F0.7564102564102564
ssg7
(dp455
g4
I01
sg5
F0.28205128205128205
sg6
F1.0
ssg9
(dp456
g4
I00
sg5
F0.7948717948717948
sg6
F0.9871794871794872
ssg11
(dp457
g4
I00
sg5
F0.16666666666666666
sg6
F0.6282051282051282
ssg13
(dp458
g4
I01
sg5
F0.11538461538461539
sg6
F1.0
ssa(dp459
g2
(dp460
g4
I00
sg5
F0.3333333333333333
sg6
F0.6190476190476191
ssg7
(dp461
g4
I01
sg5
F0.38095238095238093
sg6
F1.0
ssg9
(dp462
g4
I00
sg5
F0.7857142857142857
sg6
F0.9523809523809523
ssg11
(dp463
g4
I00
sg5
F0.30952380952380953
sg6
F0.5952380952380952
ssg13
(dp464
g4
I01
sg5
F0.2857142857142857
sg6
F1.0
ssa(dp465
g2
(dp466
g4
I00
sg5
F0.3442622950819672
sg6
F0.6885245901639344
ssg7
(dp467
g4
I01
sg5
F0.36065573770491804
sg6
F1.0
ssg9
(dp468
g4
I00
sg5
F0.7868852459016393
sg6
F0.9672131147540983
ssg11
(dp469
g4
I00
sg5
F0.22950819672131148
sg6
F0.6721311475409837
ssg13
(dp470
g4
I01
sg5
F0.19672131147540983
sg6
F1.0
ssa(dp471
g2
(dp472
g4
I00
sg5
F0.3488372093023256
sg6
F0.7209302325581395
ssg7
(dp473
g4
I01
sg5
F0.27906976744186046
sg6
F1.0
ssg9
(dp474
g4
I01
sg5
F0.7906976744186046
sg6
F1.0
ssg11
(dp475
g4
I00
sg5
F0.1511627906976744
sg6
F0.5465116279069768
ssg13
(dp476
g4
I01
sg5
F0.10465116279069768
sg6
F1.0
ssa(dp477
g2
(dp478
g4
I00
sg5
F0.3380281690140845
sg6
F0.9014084507042254
ssg7
(dp479
g4
I01
sg5
F0.29577464788732394
sg6
F1.0
ssg9
(dp480
g4
I00
sg5
F0.7887323943661971
sg6
F0.971830985915493
ssg11
(dp481
g4
I00
sg5
F0.09859154929577464
sg6
F0.2676056338028169
ssg13
(dp482
g4
I01
sg5
F0.1267605633802817
sg6
F1.0
ssa(dp483
g2
(dp484
g4
I00
sg5
F0.34328358208955223
sg6
F0.6865671641791045
ssg7
(dp485
g4
I01
sg5
F0.3283582089552239
sg6
F1.0
ssg9
(dp486
g4
I00
sg5
F0.7910447761194029
sg6
F0.9402985074626866
ssg11
(dp487
g4
I00
sg5
F0.22388059701492538
sg6
F0.6268656716417911
ssg13
(dp488
g4
I01
sg5
F0.13432835820895522
sg6
F1.0
ssa(dp489
g2
(dp490
g4
I00
sg5
F0.35
sg6
F0.85
ssg7
(dp491
g4
I01
sg5
F0.325
sg6
F1.0
ssg9
(dp492
g4
I00
sg5
F0.8
sg6
F0.9875
ssg11
(dp493
g4
I00
sg5
F0.0875
sg6
F0.26249999999999996
ssg13
(dp494
g4
I01
sg5
F0.1125
sg6
F1.0
ssa(dp495
g2
(dp496
g4
I00
sg5
F0.34444444444444444
sg6
F0.7222222222222222
ssg7
(dp497
g4
I01
sg5
F0.3
sg6
F1.0
ssg9
(dp498
g4
I01
sg5
F0.8
sg6
F1.0
ssg11
(dp499
g4
I00
sg5
F0.14444444444444443
sg6
F0.4555555555555556
ssg13
(dp500
g4
I01
sg5
F0.1
sg6
F1.0
ssa(dp501
g2
(dp502
g4
I00
sg5
F0.3404255319148936
sg6
F0.7872340425531915
ssg7
(dp503
g4
I01
sg5
F0.3829787234042553
sg6
F1.0
ssg9
(dp504
g4
I00
sg5
F0.7872340425531915
sg6
F0.9574468085106383
ssg11
(dp505
g4
I00
sg5
F0.23404255319148937
sg6
F0.6170212765957447
ssg13
(dp506
g4
I01
sg5
F0.23404255319148937
sg6
F1.0
ssa(dp507
g2
(dp508
g4
I00
sg5
F0.34782608695652173
sg6
F0.6521739130434783
ssg7
(dp509
g4
I01
sg5
F0.4782608695652174
sg6
F1.0
ssg9
(dp510
g4
I00
sg5
F0.782608695652174
sg6
F0.9130434782608696
ssg11
(dp511
g4
I00
sg5
F0.21739130434782608
sg6
F0.5652173913043479
ssg13
(dp512
g4
I01
sg5
F0.21739130434782608
sg6
F1.0
ssa(dp513
g2
(dp514
g4
I00
sg5
F0.34375
sg6
F0.46875
ssg7
(dp515
g4
I01
sg5
F0.46875
sg6
F1.0
ssg9
(dp516
g4
I00
sg5
F0.78125
sg6
F0.9375
ssg11
(dp517
g4
I00
sg5
F0.28125
sg6
F0.75
ssg13
(dp518
g4
I01
sg5
F0.28125
sg6
F1.0
ssa(dp519
g2
(dp520
g4
I00
sg5
F0.3488372093023256
sg6
F0.4651162790697675
ssg7
(dp521
g4
I01
sg5
F0.5116279069767442
sg6
F1.0
ssg9
(dp522
g4
I00
sg5
F0.7906976744186046
sg6
F0.9069767441860466
ssg11
(dp523
g4
I00
sg5
F0.32558139534883723
sg6
F0.6046511627906976
ssg13
(dp524
g4
I01
sg5
F0.23255813953488372
sg6
F1.0
ssa(dp525
g2
(dp526
g4
I00
sg5
F0.3380281690140845
sg6
F0.8169014084507042
ssg7
(dp527
g4
I01
sg5
F0.38028169014084506
sg6
F1.0
ssg9
(dp528
g4
I01
sg5
F0.7887323943661971
sg6
F1.0
ssg11
(dp529
g4
I00
sg5
F0.16901408450704225
sg6
F0.647887323943662
ssg13
(dp530
g4
I01
sg5
F0.1267605633802817
sg6
F1.0
ssa(dp531
g2
(dp532
g4
I00
sg5
F0.3333333333333333
sg6
F0.6666666666666667
ssg7
(dp533
g4
I01
sg5
F0.4222222222222222
sg6
F1.0
ssg9
(dp534
g4
I00
sg5
F0.8
sg6
F0.9777777777777777
ssg11
(dp535
g4
I00
sg5
F0.24444444444444444
sg6
F0.48888888888888893
ssg13
(dp536
g4
I01
sg5
F0.24444444444444444
sg6
F1.0
ssa(dp537
g2
(dp538
g4
I00
sg5
F0.3333333333333333
sg6
F0.6444444444444444
ssg7
(dp539
g4
I01
sg5
F0.4
sg6
F1.0
ssg9
(dp540
g4
I01
sg5
F0.8
sg6
F1.0
ssg11
(dp541
g4
I00
sg5
F0.24444444444444444
sg6
F0.6666666666666667
ssg13
(dp542
g4
I01
sg5
F0.2222222222222222
sg6
F1.0
ssa(dp543
g2
(dp544
g4
I00
sg5
F0.35
sg6
F0.7
ssg7
(dp545
g4
I00
sg5
F0.3333333333333333
sg6
F0.9833333333333333
ssg9
(dp546
g4
I00
sg5
F0.8
sg6
F0.9333333333333333
ssg11
(dp547
g4
I00
sg5
F0.2
sg6
F0.5166666666666666
ssg13
(dp548
g4
I01
sg5
F0.16666666666666666
sg6
F1.0
ssa(dp549
g2
(dp550
g4
I00
sg5
F0.3493975903614458
sg6
F0.891566265060241
ssg7
(dp551
g4
I01
sg5
F0.2891566265060241
sg6
F1.0
ssg9
(dp552
g4
I01
sg5
F0.7951807228915663
sg6
F1.0
ssg11
(dp553
g4
I00
sg5
F0.1566265060240964
sg6
F0.6506024096385542
ssg13
(dp554
g4
I01
sg5
F0.10843373493975904
sg6
F1.0
ssa(dp555
g2
(dp556
g4
I00
sg5
F0.35
sg6
F0.675
ssg7
(dp557
g4
I01
sg5
F0.275
sg6
F1.0
ssg9
(dp558
g4
I00
sg5
F0.8
sg6
F0.9625
ssg11
(dp559
g4
I00
sg5
F0.2125
sg6
F0.55
ssg13
(dp560
g4
I01
sg5
F0.1125
sg6
F1.0
ssa(dp561
g2
(dp562
g4
I00
sg5
F0.34408602150537637
sg6
F0.9139784946236559
ssg7
(dp563
g4
I01
sg5
F0.2903225806451613
sg6
F1.0
ssg9
(dp564
g4
I00
sg5
F0.7956989247311828
sg6
F0.978494623655914
ssg11
(dp565
g4
I00
sg5
F0.07526881720430108
sg6
F0.27956989247311825
ssg13
(dp566
g4
I01
sg5
F0.0967741935483871
sg6
F1.0
ssa(dp567
g2
(dp568
g4
I00
sg5
F0.34545454545454546
sg6
F0.6909090909090909
ssg7
(dp569
g4
I01
sg5
F0.32727272727272727
sg6
F1.0
ssg9
(dp570
g4
I00
sg5
F0.8
sg6
F0.9818181818181818
ssg11
(dp571
g4
I00
sg5
F0.2727272727272727
sg6
F0.7090909090909091
ssg13
(dp572
g4
I01
sg5
F0.18181818181818182
sg6
F1.0
ssa(dp573
g2
(dp574
g4
I00
sg5
F0.34328358208955223
sg6
F0.8507462686567164
ssg7
(dp575
g4
I00
sg5
F0.26865671641791045
sg6
F0.9850746268656716
ssg9
(dp576
g4
I00
sg5
F0.7910447761194029
sg6
F0.9701492537313433
ssg11
(dp577
g4
I00
sg5
F0.16417910447761194
sg6
F0.7014925373134329
ssg13
(dp578
g4
I01
sg5
F0.1791044776119403
sg6
F1.0
ssa(dp579
g2
(dp580
g4
I00
sg5
F0.34782608695652173
sg6
F0.6811594202898551
ssg7
(dp581
g4
I01
sg5
F0.37681159420289856
sg6
F1.0
ssg9
(dp582
g4
I01
sg5
F0.7971014492753623
sg6
F1.0
ssg11
(dp583
g4
I00
sg5
F0.21739130434782608
sg6
F0.7391304347826086
ssg13
(dp584
g4
I01
sg5
F0.13043478260869565
sg6
F1.0
ssa(dp585
g2
(dp586
g4
I00
sg5
F0.34285714285714286
sg6
F0.5142857142857142
ssg7
(dp587
g4
I00
sg5
F0.4857142857142857
sg6
F0.9428571428571428
ssg9
(dp588
g4
I00
sg5
F0.8
sg6
F0.9428571428571428
ssg11
(dp589
g4
I00
sg5
F0.2571428571428571
sg6
F0.5714285714285714
ssg13
(dp590
g4
I01
sg5
F0.37142857142857144
sg6
F1.0
ssa(dp591
g2
(dp592
g4
I00
sg5
F0.33783783783783783
sg6
F0.6621621621621622
ssg7
(dp593
g4
I01
sg5
F0.2972972972972973
sg6
F1.0
ssg9
(dp594
g4
I00
sg5
F0.7972972972972973
sg6
F0.9594594594594594
ssg11
(dp595
g4
I00
sg5
F0.16216216216216217
sg6
F0.5405405405405406
ssg13
(dp596
g4
I01
sg5
F0.13513513513513514
sg6
F1.0
ssa(dp597
g2
(dp598
g4
I00
sg5
F0.3333333333333333
sg6
F0.5128205128205128
ssg7
(dp599
g4
I00
sg5
F0.46153846153846156
sg6
F0.9743589743589743
ssg9
(dp600
g4
I00
sg5
F0.7948717948717948
sg6
F0.9230769230769231
ssg11
(dp601
g4
I00
sg5
F0.2564102564102564
sg6
F0.4358974358974359
ssg13
(dp602
g4
I01
sg5
F0.358974358974359
sg6
F1.0
ssa(dp603
g2
(dp604
g4
I00
sg5
F0.34831460674157305
sg6
F0.8202247191011236
ssg7
(dp605
g4
I01
sg5
F0.24719101123595505
sg6
F1.0
ssg9
(dp606
g4
I00
sg5
F0.797752808988764
sg6
F0.9775280898876404
ssg11
(dp607
g4
I00
sg5
F0.15730337078651685
sg6
F0.4943820224719101
ssg13
(dp608
g4
I01
sg5
F0.10112359550561797
sg6
F1.0
ssa(dp609
g2
(dp610
g4
I00
sg5
F0.3333333333333333
sg6
F0.7647058823529411
ssg7
(dp611
g4
I00
sg5
F0.37254901960784315
sg6
F0.9803921568627451
ssg9
(dp612
g4
I00
sg5
F0.7843137254901961
sg6
F0.9411764705882353
ssg11
(dp613
g4
I00
sg5
F0.27450980392156865
sg6
F0.7058823529411764
ssg13
(dp614
g4
I01
sg5
F0.17647058823529413
sg6
F1.0
ssa(dp615
g2
(dp616
g4
I00
sg5
F0.3409090909090909
sg6
F0.875
ssg7
(dp617
g4
I01
sg5
F0.29545454545454547
sg6
F1.0
ssg9
(dp618
g4
I01
sg5
F0.7954545454545454
sg6
F1.0
ssg11
(dp619
g4
I00
sg5
F0.09090909090909091
sg6
F0.34090909090909094
ssg13
(dp620
g4
I01
sg5
F0.11363636363636363
sg6
F1.0
ssa(dp621
g2
(dp622
g4
I00
sg5
F0.34146341463414637
sg6
F0.7439024390243902
ssg7
(dp623
g4
I01
sg5
F0.3780487804878049
sg6
F1.0
ssg9
(dp624
g4
I01
sg5
F0.7926829268292683
sg6
F1.0
ssg11
(dp625
g4
I00
sg5
F0.14634146341463414
sg6
F0.7560975609756098
ssg13
(dp626
g4
I01
sg5
F0.10975609756097561
sg6
F1.0
ssa(dp627
g2
(dp628
g4
I00
sg5
F0.3404255319148936
sg6
F0.8829787234042553
ssg7
(dp629
g4
I01
sg5
F0.2765957446808511
sg6
F1.0
ssg9
(dp630
g4
I00
sg5
F0.7978723404255319
sg6
F0.9893617021276596
ssg11
(dp631
g4
I00
sg5
F0.10638297872340426
sg6
F0.34042553191489366
ssg13
(dp632
g4
I01
sg5
F0.09574468085106383
sg6
F1.0
ssa(dp633
g2
(dp634
g4
I00
sg5
F0.34285714285714286
sg6
F0.7428571428571429
ssg7
(dp635
g4
I01
sg5
F0.3
sg6
F1.0
ssg9
(dp636
g4
I00
sg5
F0.8
sg6
F0.9714285714285714
ssg11
(dp637
g4
I00
sg5
F0.15714285714285714
sg6
F0.4571428571428572
ssg13
(dp638
g4
I01
sg5
F0.12857142857142856
sg6
F1.0
ssa(dp639
g2
(dp640
g4
I00
sg5
F0.34831460674157305
sg6
F0.8876404494382022
ssg7
(dp641
g4
I01
sg5
F0.30337078651685395
sg6
F1.0
ssg9
(dp642
g4
I01
sg5
F0.797752808988764
sg6
F1.0
ssg11
(dp643
g4
I00
sg5
F0.14606741573033707
sg6
F0.5730337078651686
ssg13
(dp644
g4
I01
sg5
F0.10112359550561797
sg6
F1.0
ssa(dp645
g2
(dp646
g4
I00
sg5
F0.3484848484848485
sg6
F0.6818181818181819
ssg7
(dp647
g4
I00
sg5
F0.3333333333333333
sg6
F0.9545454545454546
ssg9
(dp648
g4
I00
sg5
F0.7878787878787878
sg6
F0.9848484848484849
ssg11
(dp649
g4
I00
sg5
F0.13636363636363635
sg6
F0.43939393939393945
ssg13
(dp650
g4
I01
sg5
F0.16666666666666666
sg6
F1.0
ssa(dp651
g2
(dp652
g4
I00
sg5
F0.34146341463414637
sg6
F0.6585365853658536
ssg7
(dp653
g4
I01
sg5
F0.2804878048780488
sg6
F1.0
ssg9
(dp654
g4
I00
sg5
F0.7926829268292683
sg6
F0.9878048780487805
ssg11
(dp655
g4
I00
sg5
F0.14634146341463414
sg6
F0.36585365853658536
ssg13
(dp656
g4
I01
sg5
F0.10975609756097561
sg6
F1.0
ssa(dp657
g2
(dp658
g4
I00
sg5
F0.3384615384615385
sg6
F0.5692307692307692
ssg7
(dp659
g4
I01
sg5
F0.3230769230769231
sg6
F1.0
ssg9
(dp660
g4
I01
sg5
F0.8
sg6
F1.0
ssg11
(dp661
g4
I00
sg5
F0.1076923076923077
sg6
F0.3076923076923077
ssg13
(dp662
g4
I01
sg5
F0.15384615384615385
sg6
F1.0
ssa(dp663
g2
(dp664
g4
I00
sg5
F0.34831460674157305
sg6
F0.7752808988764045
ssg7
(dp665
g4
I01
sg5
F0.2696629213483146
sg6
F1.0
ssg9
(dp666
g4
I01
sg5
F0.797752808988764
sg6
F1.0
ssg11
(dp667
g4
I00
sg5
F0.16853932584269662
sg6
F0.5842696629213483
ssg13
(dp668
g4
I01
sg5
F0.10112359550561797
sg6
F1.0
ssa(dp669
g2
(dp670
g4
I00
sg5
F0.34444444444444444
sg6
F0.9333333333333333
ssg7
(dp671
g4
I01
sg5
F0.28888888888888886
sg6
F1.0
ssg9
(dp672
g4
I01
sg5
F0.8
sg6
F1.0
ssg11
(dp673
g4
I00
sg5
F0.12222222222222222
sg6
F0.5444444444444445
ssg13
(dp674
g4
I01
sg5
F0.1
sg6
F1.0
ssa(dp675
g2
(dp676
g4
I00
sg5
F0.3411764705882353
sg6
F0.788235294117647
ssg7
(dp677
g4
I01
sg5
F0.29411764705882354
sg6
F1.0
ssg9
(dp678
g4
I00
sg5
F0.8
sg6
F0.9529411764705882
ssg11
(dp679
g4
I00
sg5
F0.15294117647058825
sg6
F0.611764705882353
ssg13
(dp680
g4
I01
sg5
F0.11764705882352941
sg6
F1.0
ssa(dp681
g2
(dp682
g4
I00
sg5
F0.32432432432432434
sg6
F0.6486486486486487
ssg7
(dp683
g4
I01
sg5
F0.4864864864864865
sg6
F1.0
ssg9
(dp684
g4
I00
sg5
F0.7837837837837838
sg6
F0.972972972972973
ssg11
(dp685
g4
I00
sg5
F0.24324324324324326
sg6
F0.45945945945945943
ssg13
(dp686
g4
I01
sg5
F0.32432432432432434
sg6
F1.0
ssa(dp687
g2
(dp688
g4
I00
sg5
F0.34615384615384615
sg6
F0.6346153846153846
ssg7
(dp689
g4
I01
sg5
F0.38461538461538464
sg6
F1.0
ssg9
(dp690
g4
I00
sg5
F0.7884615384615384
sg6
F0.9807692307692307
ssg11
(dp691
g4
I00
sg5
F0.23076923076923078
sg6
F0.46153846153846156
ssg13
(dp692
g4
I01
sg5
F0.17307692307692307
sg6
F1.0
ssa(dp693
g2
(dp694
g4
I00
sg5
F0.3333333333333333
sg6
F0.696969696969697
ssg7
(dp695
g4
I00
sg5
F0.42424242424242425
sg6
F0.9393939393939394
ssg9
(dp696
g4
I00
sg5
F0.7878787878787878
sg6
F0.9393939393939394
ssg11
(dp697
g4
I00
sg5
F0.2727272727272727
sg6
F0.4242424242424242
ssg13
(dp698
g4
I01
sg5
F0.36363636363636365
sg6
F1.0
ssa(dp699
g2
(dp700
g4
I00
sg5
F0.3484848484848485
sg6
F0.7424242424242424
ssg7
(dp701
g4
I01
sg5
F0.3484848484848485
sg6
F1.0
ssg9
(dp702
g4
I00
sg5
F0.7878787878787878
sg6
F0.9848484848484849
ssg11
(dp703
g4
I00
sg5
F0.18181818181818182
sg6
F0.6666666666666667
ssg13
(dp704
g4
I01
sg5
F0.18181818181818182
sg6
F1.0
ssa(dp705
g2
(dp706
g4
I00
sg5
F0.3448275862068966
sg6
F0.6551724137931034
ssg7
(dp707
g4
I01
sg5
F0.27586206896551724
sg6
F1.0
ssg9
(dp708
g4
I01
sg5
F0.7931034482758621
sg6
F1.0
ssg11
(dp709
g4
I00
sg5
F0.13793103448275862
sg6
F0.4482758620689655
ssg13
(dp710
g4
I01
sg5
F0.10344827586206896
sg6
F1.0
ssa(dp711
g2
(dp712
g4
I00
sg5
F0.3488372093023256
sg6
F0.5813953488372092
ssg7
(dp713
g4
I00
sg5
F0.37209302325581395
sg6
F0.9767441860465116
ssg9
(dp714
g4
I00
sg5
F0.7906976744186046
sg6
F0.8837209302325582
ssg11
(dp715
g4
I00
sg5
F0.27906976744186046
sg6
F0.5581395348837209
ssg13
(dp716
g4
I01
sg5
F0.2558139534883721
sg6
F1.0
ssa(dp717
g2
(dp718
g4
I00
sg5
F0.35
sg6
F0.65
ssg7
(dp719
g4
I00
sg5
F0.4
sg6
F0.975
ssg9
(dp720
g4
I00
sg5
F0.8
sg6
F0.925
ssg11
(dp721
g4
I00
sg5
F0.35
sg6
F0.75
ssg13
(dp722
g4
I01
sg5
F0.3
sg6
F1.0
ssa(dp723
g2
(dp724
g4
I00
sg5
F0.3225806451612903
sg6
F0.4838709677419355
ssg7
(dp725
g4
I00
sg5
F0.4838709677419355
sg6
F0.935483870967742
ssg9
(dp726
g4
I00
sg5
F0.7741935483870968
sg6
F0.9032258064516129
ssg11
(dp727
g4
I00
sg5
F0.3225806451612903
sg6
F0.4516129032258065
ssg13
(dp728
g4
I01
sg5
F0.3870967741935484
sg6
F1.0
ssa(dp729
g2
(dp730
g4
I00
sg5
F0.35
sg6
F0.95
ssg7
(dp731
g4
I01
sg5
F0.2875
sg6
F1.0
ssg9
(dp732
g4
I01
sg5
F0.8
sg6
F1.0
ssg11
(dp733
g4
I00
sg5
F0.15
sg6
F0.65
ssg13
(dp734
g4
I01
sg5
F0.1125
sg6
F1.0
ssa(dp735
g2
(dp736
g4
I00
sg5
F0.3409090909090909
sg6
F0.5909090909090908
ssg7
(dp737
g4
I01
sg5
F0.4090909090909091
sg6
F1.0
ssg9
(dp738
g4
I01
sg5
F0.7954545454545454
sg6
F1.0
ssg11
(dp739
g4
I00
sg5
F0.2727272727272727
sg6
F0.5681818181818181
ssg13
(dp740
g4
I01
sg5
F0.22727272727272727
sg6
F1.0
ssa(dp741
g2
(dp742
g4
I00
sg5
F0.3448275862068966
sg6
F0.9425287356321839
ssg7
(dp743
g4
I01
sg5
F0.2988505747126437
sg6
F1.0
ssg9
(dp744
g4
I01
sg5
F0.7931034482758621
sg6
F1.0
ssg11
(dp745
g4
I00
sg5
F0.13793103448275862
sg6
F0.7241379310344828
ssg13
(dp746
g4
I01
sg5
F0.10344827586206896
sg6
F1.0
ssa(dp747
g2
(dp748
g4
I00
sg5
F0.3434343434343434
sg6
F0.898989898989899
ssg7
(dp749
g4
I01
sg5
F0.2727272727272727
sg6
F1.0
ssg9
(dp750
g4
I01
sg5
F0.797979797979798
sg6
F1.0
ssg11
(dp751
g4
I00
sg5
F0.1717171717171717
sg6
F0.797979797979798
ssg13
(dp752
g4
I01
sg5
F0.09090909090909091
sg6
F1.0
ssa(dp753
g2
(dp754
g4
I00
sg5
F0.35
sg6
F0.7
ssg7
(dp755
g4
I00
sg5
F0.425
sg6
F0.975
ssg9
(dp756
g4
I00
sg5
F0.8
sg6
F0.95
ssg11
(dp757
g4
I00
sg5
F0.375
sg6
F0.775
ssg13
(dp758
g4
I01
sg5
F0.25
sg6
F1.0
ssa(dp759
g2
(dp760
g4
I00
sg5
F0.3333333333333333
sg6
F0.4666666666666667
ssg7
(dp761
g4
I01
sg5
F0.4222222222222222
sg6
F1.0
ssg9
(dp762
g4
I01
sg5
F0.8
sg6
F1.0
ssg11
(dp763
g4
I00
sg5
F0.3333333333333333
sg6
F0.6666666666666667
ssg13
(dp764
g4
I01
sg5
F0.24444444444444444
sg6
F1.0
ssa(dp765
g2
(dp766
g4
I00
sg5
F0.34444444444444444
sg6
F0.8
ssg7
(dp767
g4
I01
sg5
F0.28888888888888886
sg6
F1.0
ssg9
(dp768
g4
I01
sg5
F0.8
sg6
F1.0
ssg11
(dp769
g4
I00
sg5
F0.16666666666666666
sg6
F0.4666666666666667
ssg13
(dp770
g4
I01
sg5
F0.1111111111111111
sg6
F1.0
ssa(dp771
g2
(dp772
g4
I00
sg5
F0.3333333333333333
sg6
F0.48888888888888893
ssg7
(dp773
g4
I01
sg5
F0.4444444444444444
sg6
F1.0
ssg9
(dp774
g4
I00
sg5
F0.8
sg6
F0.9555555555555556
ssg11
(dp775
g4
I00
sg5
F0.2222222222222222
sg6
F0.4444444444444444
ssg13
(dp776
g4
I01
sg5
F0.2
sg6
F1.0
ssa(dp777
g2
(dp778
g4
I00
sg5
F0.35
sg6
F0.775
ssg7
(dp779
g4
I01
sg5
F0.3
sg6
F1.0
ssg9
(dp780
g4
I01
sg5
F0.8
sg6
F1.0
ssg11
(dp781
g4
I00
sg5
F0.1
sg6
F0.32499999999999996
ssg13
(dp782
g4
I01
sg5
F0.1125
sg6
F1.0
ssa(dp783
g2
(dp784
g4
I00
sg5
F0.3333333333333333
sg6
F0.5757575757575757
ssg7
(dp785
g4
I01
sg5
F0.5151515151515151
sg6
F1.0
ssg9
(dp786
g4
I00
sg5
F0.7878787878787878
sg6
F0.9393939393939394
ssg11
(dp787
g4
I00
sg5
F0.30303030303030304
sg6
F0.6060606060606061
ssg13
(dp788
g4
I01
sg5
F0.3333333333333333
sg6
F1.0
ssa(dp789
g2
(dp790
g4
I00
sg5
F0.3488372093023256
sg6
F0.8372093023255813
ssg7
(dp791
g4
I01
sg5
F0.27906976744186046
sg6
F1.0
ssg9
(dp792
g4
I00
sg5
F0.7906976744186046
sg6
F0.9883720930232558
ssg11
(dp793
g4
I00
sg5
F0.13953488372093023
sg6
F0.4883720930232558
ssg13
(dp794
g4
I01
sg5
F0.10465116279069768
sg6
F1.0
ssa(dp795
g2
(dp796
g4
I00
sg5
F0.3466666666666667
sg6
F0.6933333333333334
ssg7
(dp797
g4
I01
sg5
F0.29333333333333333
sg6
F1.0
ssg9
(dp798
g4
I01
sg5
F0.8
sg6
F1.0
ssg11
(dp799
g4
I00
sg5
F0.21333333333333335
sg6
F0.6799999999999999
ssg13
(dp800
g4
I01
sg5
F0.13333333333333333
sg6
F1.0
ssa(dp801
g2
(dp802
g4
I00
sg5
F0.3488372093023256
sg6
F0.627906976744186
ssg7
(dp803
g4
I01
sg5
F0.3953488372093023
sg6
F1.0
ssg9
(dp804
g4
I00
sg5
F0.7906976744186046
sg6
F0.9069767441860466
ssg11
(dp805
g4
I00
sg5
F0.2558139534883721
sg6
F0.5813953488372092
ssg13
(dp806
g4
I01
sg5
F0.2558139534883721
sg6
F1.0
ssa(dp807
g2
(dp808
g4
I00
sg5
F0.34782608695652173
sg6
F0.7717391304347826
ssg7
(dp809
g4
I01
sg5
F0.2826086956521739
sg6
F1.0
ssg9
(dp810
g4
I01
sg5
F0.7934782608695652
sg6
F1.0
ssg11
(dp811
g4
I00
sg5
F0.17391304347826086
sg6
F0.6630434782608696
ssg13
(dp812
g4
I01
sg5
F0.09782608695652174
sg6
F1.0
ssa(dp813
g2
(dp814
g4
I00
sg5
F0.33766233766233766
sg6
F0.7792207792207793
ssg7
(dp815
g4
I01
sg5
F0.2987012987012987
sg6
F1.0
ssg9
(dp816
g4
I01
sg5
F0.7922077922077922
sg6
F1.0
ssg11
(dp817
g4
I00
sg5
F0.18181818181818182
sg6
F0.5324675324675325
ssg13
(dp818
g4
I01
sg5
F0.11688311688311688
sg6
F1.0
ssa(dp819
g2
(dp820
g4
I00
sg5
F0.3448275862068966
sg6
F0.603448275862069
ssg7
(dp821
g4
I00
sg5
F0.3275862068965517
sg6
F0.9827586206896551
ssg9
(dp822
g4
I00
sg5
F0.7931034482758621
sg6
F0.9827586206896551
ssg11
(dp823
g4
I00
sg5
F0.15517241379310345
sg6
F0.3793103448275862
ssg13
(dp824
g4
I01
sg5
F0.22413793103448276
sg6
F1.0
ssa(dp825
g2
(dp826
g4
I00
sg5
F0.34782608695652173
sg6
F0.5434782608695652
ssg7
(dp827
g4
I01
sg5
F0.391304347826087
sg6
F1.0
ssg9
(dp828
g4
I00
sg5
F0.782608695652174
sg6
F0.9782608695652174
ssg11
(dp829
g4
I00
sg5
F0.17391304347826086
sg6
F0.3695652173913043
ssg13
(dp830
g4
I01
sg5
F0.2826086956521739
sg6
F1.0
ssa(dp831
g2
(dp832
g4
I00
sg5
F0.3492063492063492
sg6
F0.6349206349206349
ssg7
(dp833
g4
I01
sg5
F0.36507936507936506
sg6
F1.0
ssg9
(dp834
g4
I00
sg5
F0.7936507936507936
sg6
F0.9365079365079365
ssg11
(dp835
g4
I00
sg5
F0.15873015873015872
sg6
F0.47619047619047616
ssg13
(dp836
g4
I01
sg5
F0.14285714285714285
sg6
F1.0
ssa(dp837
g2
(dp838
g4
I00
sg5
F0.3333333333333333
sg6
F0.5
ssg7
(dp839
g4
I01
sg5
F0.40476190476190477
sg6
F1.0
ssg9
(dp840
g4
I00
sg5
F0.7857142857142857
sg6
F0.8571428571428572
ssg11
(dp841
g4
I00
sg5
F0.21428571428571427
sg6
F0.33333333333333337
ssg13
(dp842
g4
I01
sg5
F0.2857142857142857
sg6
F1.0
ssa(dp843
g2
(dp844
g4
I00
sg5
F0.3384615384615385
sg6
F0.8769230769230769
ssg7
(dp845
g4
I01
sg5
F0.3076923076923077
sg6
F1.0
ssg9
(dp846
g4
I01
sg5
F0.8
sg6
F1.0
ssg11
(dp847
g4
I00
sg5
F0.13846153846153847
sg6
F0.5538461538461539
ssg13
(dp848
g4
I01
sg5
F0.16923076923076924
sg6
F1.0
ssa(dp849
g2
(dp850
g4
I00
sg5
F0.34146341463414637
sg6
F0.5853658536585367
ssg7
(dp851
g4
I01
sg5
F0.4146341463414634
sg6
F1.0
ssg9
(dp852
g4
I00
sg5
F0.7804878048780488
sg6
F0.8780487804878049
ssg11
(dp853
g4
I00
sg5
F0.34146341463414637
sg6
F0.5121951219512195
ssg13
(dp854
g4
I01
sg5
F0.34146341463414637
sg6
F1.0
ssa(dp855
g2
(dp856
g4
I00
sg5
F0.34831460674157305
sg6
F0.8202247191011236
ssg7
(dp857
g4
I01
sg5
F0.25842696629213485
sg6
F1.0
ssg9
(dp858
g4
I00
sg5
F0.797752808988764
sg6
F0.9775280898876404
ssg11
(dp859
g4
I00
sg5
F0.14606741573033707
sg6
F0.4382022471910112
ssg13
(dp860
g4
I01
sg5
F0.10112359550561797
sg6
F1.0
ssa(dp861
g2
(dp862
g4
I00
sg5
F0.35
sg6
F0.75
ssg7
(dp863
g4
I01
sg5
F0.3333333333333333
sg6
F1.0
ssg9
(dp864
g4
I00
sg5
F0.8
sg6
F0.9833333333333333
ssg11
(dp865
g4
I00
sg5
F0.18333333333333332
sg6
F0.55
ssg13
(dp866
g4
I01
sg5
F0.16666666666666666
sg6
F1.0
ssa(dp867
g2
(dp868
g4
I00
sg5
F0.34545454545454546
sg6
F0.7454545454545455
ssg7
(dp869
g4
I01
sg5
F0.38181818181818183
sg6
F1.0
ssg9
(dp870
g4
I00
sg5
F0.8
sg6
F0.9818181818181818
ssg11
(dp871
g4
I00
sg5
F0.23636363636363636
sg6
F0.6909090909090909
ssg13
(dp872
g4
I01
sg5
F0.2
sg6
F1.0
ssa(dp873
g2
(dp874
g4
I00
sg5
F0.3442622950819672
sg6
F0.5573770491803278
ssg7
(dp875
g4
I00
sg5
F0.32786885245901637
sg6
F0.9836065573770492
ssg9
(dp876
g4
I00
sg5
F0.7868852459016393
sg6
F0.9180327868852459
ssg11
(dp877
g4
I00
sg5
F0.22950819672131148
sg6
F0.5245901639344263
ssg13
(dp878
g4
I01
sg5
F0.19672131147540983
sg6
F1.0
ssa(dp879
g2
(dp880
g4
I00
sg5
F0.34285714285714286
sg6
F0.48571428571428577
ssg7
(dp881
g4
I01
sg5
F0.45714285714285713
sg6
F1.0
ssg9
(dp882
g4
I00
sg5
F0.8
sg6
F0.9428571428571428
ssg11
(dp883
g4
I00
sg5
F0.3142857142857143
sg6
F0.5428571428571429
ssg13
(dp884
g4
I01
sg5
F0.2857142857142857
sg6
F1.0
ssa(dp885
g2
(dp886
g4
I00
sg5
F0.3488372093023256
sg6
F0.7558139534883721
ssg7
(dp887
g4
I01
sg5
F0.27906976744186046
sg6
F1.0
ssg9
(dp888
g4
I00
sg5
F0.7906976744186046
sg6
F0.9883720930232558
ssg11
(dp889
g4
I00
sg5
F0.11627906976744186
sg6
F0.38372093023255816
ssg13
(dp890
g4
I01
sg5
F0.10465116279069768
sg6
F1.0
ssa(dp891
g2
(dp892
g4
I00
sg5
F0.34146341463414637
sg6
F0.7073170731707317
ssg7
(dp893
g4
I01
sg5
F0.4634146341463415
sg6
F1.0
ssg9
(dp894
g4
I00
sg5
F0.7804878048780488
sg6
F0.9512195121951219
ssg11
(dp895
g4
I00
sg5
F0.2682926829268293
sg6
F0.5853658536585367
ssg13
(dp896
g4
I01
sg5
F0.2682926829268293
sg6
F1.0
ssa(dp897
g2
(dp898
g4
I00
sg5
F0.3392857142857143
sg6
F0.6607142857142857
ssg7
(dp899
g4
I01
sg5
F0.3392857142857143
sg6
F1.0
ssg9
(dp900
g4
I00
sg5
F0.7857142857142857
sg6
F0.9642857142857143
ssg11
(dp901
g4
I00
sg5
F0.21428571428571427
sg6
F0.5357142857142857
ssg13
(dp902
g4
I01
sg5
F0.19642857142857142
sg6
F1.0
ssa(dp903
g2
(dp904
g4
I00
sg5
F0.3434343434343434
sg6
F0.7373737373737373
ssg7
(dp905
g4
I01
sg5
F0.2727272727272727
sg6
F1.0
ssg9
(dp906
g4
I01
sg5
F0.797979797979798
sg6
F1.0
ssg11
(dp907
g4
I00
sg5
F0.16161616161616163
sg6
F0.6363636363636364
ssg13
(dp908
g4
I01
sg5
F0.09090909090909091
sg6
F1.0
ssa(dp909
g2
(dp910
g4
I00
sg5
F0.34615384615384615
sg6
F0.8076923076923077
ssg7
(dp911
g4
I01
sg5
F0.3076923076923077
sg6
F1.0
ssg9
(dp912
g4
I00
sg5
F0.7948717948717948
sg6
F0.9743589743589743
ssg11
(dp913
g4
I00
sg5
F0.1794871794871795
sg6
F0.6153846153846154
ssg13
(dp914
g4
I01
sg5
F0.1282051282051282
sg6
F1.0
ssa(dp915
g2
(dp916
g4
I00
sg5
F0.34285714285714286
sg6
F0.6285714285714286
ssg7
(dp917
g4
I01
sg5
F0.2714285714285714
sg6
F1.0
ssg9
(dp918
g4
I01
sg5
F0.8
sg6
F1.0
ssg11
(dp919
g4
I00
sg5
F0.2
sg6
F0.48571428571428577
ssg13
(dp920
g4
I01
sg5
F0.12857142857142856
sg6
F1.0
ssa(dp921
g2
(dp922
g4
I00
sg5
F0.3235294117647059
sg6
F0.5294117647058824
ssg7
(dp923
g4
I00
sg5
F0.4117647058823529
sg6
F0.9705882352941176
ssg9
(dp924
g4
I00
sg5
F0.7941176470588235
sg6
F0.9411764705882353
ssg11
(dp925
g4
I00
sg5
F0.3235294117647059
sg6
F0.6764705882352942
ssg13
(dp926
g4
I01
sg5
F0.4117647058823529
sg6
F1.0
ssa(dp927
g2
(dp928
g4
I00
sg5
F0.3488372093023256
sg6
F0.8837209302325582
ssg7
(dp929
g4
I01
sg5
F0.3023255813953488
sg6
F1.0
ssg9
(dp930
g4
I01
sg5
F0.7906976744186046
sg6
F1.0
ssg11
(dp931
g4
I00
sg5
F0.1744186046511628
sg6
F0.5232558139534884
ssg13
(dp932
g4
I01
sg5
F0.10465116279069768
sg6
F1.0
ssa(dp933
g2
(dp934
g4
I00
sg5
F0.34444444444444444
sg6
F0.7
ssg7
(dp935
g4
I01
sg5
F0.28888888888888886
sg6
F1.0
ssg9
(dp936
g4
I00
sg5
F0.8
sg6
F0.9888888888888889
ssg11
(dp937
g4
I00
sg5
F0.1111111111111111
sg6
F0.5111111111111111
ssg13
(dp938
g4
I01
sg5
F0.1
sg6
F1.0
ssa(dp939
g2
(dp940
g4
I00
sg5
F0.34210526315789475
sg6
F0.7105263157894737
ssg7
(dp941
g4
I01
sg5
F0.42105263157894735
sg6
F1.0
ssg9
(dp942
g4
I00
sg5
F0.7894736842105263
sg6
F0.9736842105263158
ssg11
(dp943
g4
I00
sg5
F0.2894736842105263
sg6
F0.631578947368421
ssg13
(dp944
g4
I01
sg5
F0.2631578947368421
sg6
F1.0
ssa(dp945
g2
(dp946
g4
I00
sg5
F0.3469387755102041
sg6
F0.9591836734693877
ssg7
(dp947
g4
I01
sg5
F0.2857142857142857
sg6
F1.0
ssg9
(dp948
g4
I01
sg5
F0.7959183673469388
sg6
F1.0
ssg11
(dp949
g4
I00
sg5
F0.12244897959183673
sg6
F0.5306122448979591
ssg13
(dp950
g4
I01
sg5
F0.09183673469387756
sg6
F1.0
ssa(dp951
g2
(dp952
g4
I00
sg5
F0.33766233766233766
sg6
F0.8311688311688312
ssg7
(dp953
g4
I01
sg5
F0.2727272727272727
sg6
F1.0
ssg9
(dp954
g4
I01
sg5
F0.7922077922077922
sg6
F1.0
ssg11
(dp955
g4
I00
sg5
F0.11688311688311688
sg6
F0.37662337662337664
ssg13
(dp956
g4
I01
sg5
F0.11688311688311688
sg6
F1.0
ssa(dp957
g2
(dp958
g4
I00
sg5
F0.35
sg6
F0.7166666666666667
ssg7
(dp959
g4
I01
sg5
F0.36666666666666664
sg6
F1.0
ssg9
(dp960
g4
I00
sg5
F0.8
sg6
F0.9833333333333333
ssg11
(dp961
g4
I00
sg5
F0.18333333333333332
sg6
F0.4666666666666667
ssg13
(dp962
g4
I01
sg5
F0.16666666666666666
sg6
F1.0
ssa(dp963
g2
(dp964
g4
I00
sg5
F0.34375
sg6
F0.9375
ssg7
(dp965
g4
I01
sg5
F0.2604166666666667
sg6
F1.0
ssg9
(dp966
g4
I01
sg5
F0.7916666666666666
sg6
F1.0
ssg11
(dp967
g4
I00
sg5
F0.11458333333333333
sg6
F0.44791666666666663
ssg13
(dp968
g4
I01
sg5
F0.09375
sg6
F1.0
ssa(dp969
g2
(dp970
g4
I00
sg5
F0.3382352941176471
sg6
F0.7058823529411764
ssg7
(dp971
g4
I01
sg5
F0.29411764705882354
sg6
F1.0
ssg9
(dp972
g4
I00
sg5
F0.7941176470588235
sg6
F0.9705882352941176
ssg11
(dp973
g4
I00
sg5
F0.20588235294117646
sg6
F0.6323529411764706
ssg13
(dp974
g4
I01
sg5
F0.1323529411764706
sg6
F1.0
ssa(dp975
g2
(dp976
g4
I00
sg5
F0.33962264150943394
sg6
F0.679245283018868
ssg7
(dp977
g4
I01
sg5
F0.3584905660377358
sg6
F1.0
ssg9
(dp978
g4
I00
sg5
F0.7924528301886793
sg6
F0.9811320754716981
ssg11
(dp979
g4
I00
sg5
F0.18867924528301888
sg6
F0.5094339622641509
ssg13
(dp980
g4
I01
sg5
F0.16981132075471697
sg6
F1.0
ssa(dp981
g2
(dp982
g4
I00
sg5
F0.3225806451612903
sg6
F0.6774193548387097
ssg7
(dp983
g4
I01
sg5
F0.5806451612903226
sg6
F1.0
ssg9
(dp984
g4
I00
sg5
F0.7741935483870968
sg6
F0.8709677419354839
ssg11
(dp985
g4
I00
sg5
F0.1935483870967742
sg6
F0.3870967741935484
ssg13
(dp986
g4
I01
sg5
F0.3225806451612903
sg6
F1.0
ssa(dp987
g2
(dp988
g4
I00
sg5
F0.3333333333333333
sg6
F0.4
ssg7
(dp989
g4
I01
sg5
F0.6
sg6
F1.0
ssg9
(dp990
g4
I00
sg5
F0.8
sg6
F0.9666666666666667
ssg11
(dp991
g4
I00
sg5
F0.4666666666666667
sg6
F0.7666666666666666
ssg13
(dp992
g4
I01
sg5
F0.3
sg6
F1.0
ssa(dp993
g2
(dp994
g4
I00
sg5
F0.33962264150943394
sg6
F0.7169811320754718
ssg7
(dp995
g4
I00
sg5
F0.33962264150943394
sg6
F0.9811320754716981
ssg9
(dp996
g4
I00
sg5
F0.7924528301886793
sg6
F0.9622641509433962
ssg11
(dp997
g4
I00
sg5
F0.2641509433962264
sg6
F0.7735849056603774
ssg13
(dp998
g4
I01
sg5
F0.20754716981132076
sg6
F1.0
ssa(dp999
g2
(dp1000
g4
I00
sg5
F0.3402061855670103
sg6
F0.845360824742268
ssg7
(dp1001
g4
I01
sg5
F0.29896907216494845
sg6
F1.0
ssg9
(dp1002
g4
I01
sg5
F0.7938144329896907
sg6
F1.0
ssg11
(dp1003
g4
I00
sg5
F0.14432989690721648
sg6
F0.7731958762886598
ssg13
(dp1004
g4
I01
sg5
F0.09278350515463918
sg6
F1.0
ssa(dp1005
g2
(dp1006
g4
I00
sg5
F0.34285714285714286
sg6
F0.6714285714285715
ssg7
(dp1007
g4
I01
sg5
F0.35714285714285715
sg6
F1.0
ssg9
(dp1008
g4
I01
sg5
F0.8
sg6
F1.0
ssg11
(dp1009
g4
I00
sg5
F0.17142857142857143
sg6
F0.6571428571428571
ssg13
(dp1010
g4
I01
sg5
F0.12857142857142856
sg6
F1.0
ssa(dp1011
g2
(dp1012
g4
I00
sg5
F0.3434343434343434
sg6
F0.8383838383838383
ssg7
(dp1013
g4
I01
sg5
F0.26262626262626265
sg6
F1.0
ssg9
(dp1014
g4
I01
sg5
F0.797979797979798
sg6
F1.0
ssg11
(dp1015
g4
I00
sg5
F0.12121212121212122
sg6
F0.5858585858585859
ssg13
(dp1016
g4
I01
sg5
F0.09090909090909091
sg6
F1.0
ssa(dp1017
g2
(dp1018
g4
I00
sg5
F0.3384615384615385
sg6
F0.7846153846153846
ssg7
(dp1019
g4
I01
sg5
F0.27692307692307694
sg6
F1.0
ssg9
(dp1020
g4
I00
sg5
F0.8
sg6
F0.9846153846153847
ssg11
(dp1021
g4
I00
sg5
F0.16923076923076924
sg6
F0.523076923076923
ssg13
(dp1022
g4
I01
sg5
F0.15384615384615385
sg6
F1.0
ssa(dp1023
g2
(dp1024
g4
I00
sg5
F0.33962264150943394
sg6
F0.6037735849056604
ssg7
(dp1025
g4
I01
sg5
F0.3018867924528302
sg6
F1.0
ssg9
(dp1026
g4
I00
sg5
F0.7924528301886793
sg6
F0.9245283018867925
ssg11
(dp1027
g4
I00
sg5
F0.16981132075471697
sg6
F0.5283018867924528
ssg13
(dp1028
g4
I01
sg5
F0.22641509433962265
sg6
F1.0
ssa(dp1029
g2
(dp1030
g4
I00
sg5
F0.3380281690140845
sg6
F0.647887323943662
ssg7
(dp1031
g4
I01
sg5
F0.3380281690140845
sg6
F1.0
ssg9
(dp1032
g4
I00
sg5
F0.7887323943661971
sg6
F0.971830985915493
ssg11
(dp1033
g4
I00
sg5
F0.16901408450704225
sg6
F0.5492957746478873
ssg13
(dp1034
g4
I01
sg5
F0.1267605633802817
sg6
F1.0
ssa(dp1035
g2
(dp1036
g4
I00
sg5
F0.35
sg6
F0.6666666666666667
ssg7
(dp1037
g4
I01
sg5
F0.36666666666666664
sg6
F1.0
ssg9
(dp1038
g4
I00
sg5
F0.8
sg6
F0.9166666666666666
ssg11
(dp1039
g4
I00
sg5
F0.21666666666666667
sg6
F0.65
ssg13
(dp1040
g4
I01
sg5
F0.18333333333333332
sg6
F1.0
ssa(dp1041
g2
(dp1042
g4
I00
sg5
F0.3235294117647059
sg6
F0.47058823529411764
ssg7
(dp1043
g4
I00
sg5
F0.47058823529411764
sg6
F0.9117647058823529
ssg9
(dp1044
g4
I00
sg5
F0.7941176470588235
sg6
F0.9117647058823529
ssg11
(dp1045
g4
I00
sg5
F0.4411764705882353
sg6
F0.8235294117647058
ssg13
(dp1046
g4
I01
sg5
F0.35294117647058826
sg6
F1.0
ssa(dp1047
g2
(dp1048
g4
I00
sg5
F0.34375
sg6
F0.5
ssg7
(dp1049
g4
I01
sg5
F0.4375
sg6
F1.0
ssg9
(dp1050
g4
I00
sg5
F0.78125
sg6
F0.875
ssg11
(dp1051
g4
I00
sg5
F0.375
sg6
F0.65625
ssg13
(dp1052
g4
I01
sg5
F0.40625
sg6
F1.0
ssa(dp1053
g2
(dp1054
g4
I00
sg5
F0.33766233766233766
sg6
F0.7272727272727273
ssg7
(dp1055
g4
I01
sg5
F0.35064935064935066
sg6
F1.0
ssg9
(dp1056
g4
I00
sg5
F0.7922077922077922
sg6
F0.961038961038961
ssg11
(dp1057
g4
I00
sg5
F0.18181818181818182
sg6
F0.49350649350649356
ssg13
(dp1058
g4
I01
sg5
F0.12987012987012986
sg6
F1.0
ssa(dp1059
g2
(dp1060
g4
I00
sg5
F0.3492063492063492
sg6
F0.8253968253968254
ssg7
(dp1061
g4
I01
sg5
F0.2857142857142857
sg6
F1.0
ssg9
(dp1062
g4
I01
sg5
F0.7936507936507936
sg6
F1.0
ssg11
(dp1063
g4
I00
sg5
F0.19047619047619047
sg6
F0.6825396825396826
ssg13
(dp1064
g4
I01
sg5
F0.19047619047619047
sg6
F1.0
ssa(dp1065
g2
(dp1066
g4
I00
sg5
F0.33962264150943394
sg6
F0.6226415094339622
ssg7
(dp1067
g4
I01
sg5
F0.3584905660377358
sg6
F1.0
ssg9
(dp1068
g4
I00
sg5
F0.7924528301886793
sg6
F0.9622641509433962
ssg11
(dp1069
g4
I00
sg5
F0.3018867924528302
sg6
F0.8679245283018868
ssg13
(dp1070
g4
I01
sg5
F0.16981132075471697
sg6
F1.0
ssa(dp1071
g2
(dp1072
g4
I00
sg5
F0.3409090909090909
sg6
F0.6363636363636364
ssg7
(dp1073
g4
I01
sg5
F0.45454545454545453
sg6
F1.0
ssg9
(dp1074
g4
I01
sg5
F0.7954545454545454
sg6
F1.0
ssg11
(dp1075
g4
I00
sg5
F0.25
sg6
F0.5909090909090908
ssg13
(dp1076
g4
I01
sg5
F0.25
sg6
F1.0
ssa(dp1077
g2
(dp1078
g4
I00
sg5
F0.34782608695652173
sg6
F0.8152173913043479
ssg7
(dp1079
g4
I01
sg5
F0.30434782608695654
sg6
F1.0
ssg9
(dp1080
g4
I01
sg5
F0.7934782608695652
sg6
F1.0
ssg11
(dp1081
g4
I00
sg5
F0.14130434782608695
sg6
F0.4347826086956522
ssg13
(dp1082
g4
I01
sg5
F0.09782608695652174
sg6
F1.0
ssa(dp1083
g2
(dp1084
g4
I00
sg5
F0.3411764705882353
sg6
F0.6941176470588235
ssg7
(dp1085
g4
I01
sg5
F0.3176470588235294
sg6
F1.0
ssg9
(dp1086
g4
I01
sg5
F0.8
sg6
F1.0
ssg11
(dp1087
g4
I00
sg5
F0.12941176470588237
sg6
F0.43529411764705883
ssg13
(dp1088
g4
I01
sg5
F0.10588235294117647
sg6
F1.0
ssa(dp1089
g2
(dp1090
g4
I00
sg5
F0.35
sg6
F0.75
ssg7
(dp1091
g4
I01
sg5
F0.275
sg6
F1.0
ssg9
(dp1092
g4
I00
sg5
F0.8
sg6
F0.975
ssg11
(dp1093
g4
I00
sg5
F0.15
sg6
F0.5125
ssg13
(dp1094
g4
I01
sg5
F0.125
sg6
F1.0
ssa(dp1095
g2
(dp1096
g4
I00
sg5
F0.34328358208955223
sg6
F0.7462686567164178
ssg7
(dp1097
g4
I01
sg5
F0.3283582089552239
sg6
F1.0
ssg9
(dp1098
g4
I00
sg5
F0.7910447761194029
sg6
F0.9552238805970149
ssg11
(dp1099
g4
I00
sg5
F0.208955223880597
sg6
F0.5970149253731343
ssg13
(dp1100
g4
I01
sg5
F0.14925373134328357
sg6
F1.0
ssa(dp1101
g2
(dp1102
g4
I00
sg5
F0.3473684210526316
sg6
F0.8105263157894737
ssg7
(dp1103
g4
I01
sg5
F0.28421052631578947
sg6
F1.0
ssg9
(dp1104
g4
I01
sg5
F0.8
sg6
F1.0
ssg11
(dp1105
g4
I00
sg5
F0.11578947368421053
sg6
F0.7052631578947368
ssg13
(dp1106
g4
I01
sg5
F0.09473684210526316
sg6
F1.0
ssa(dp1107
g2
(dp1108
g4
I00
sg5
F0.3402061855670103
sg6
F0.845360824742268
ssg7
(dp1109
g4
I01
sg5
F0.25773195876288657
sg6
F1.0
ssg9
(dp1110
g4
I01
sg5
F0.7938144329896907
sg6
F1.0
ssg11
(dp1111
g4
I00
sg5
F0.18556701030927836
sg6
F0.6701030927835052
ssg13
(dp1112
g4
I01
sg5
F0.09278350515463918
sg6
F1.0
ssa(dp1113
g2
(dp1114
g4
I00
sg5
F0.34444444444444444
sg6
F0.6555555555555556
ssg7
(dp1115
g4
I01
sg5
F0.3111111111111111
sg6
F1.0
ssg9
(dp1116
g4
I01
sg5
F0.8
sg6
F1.0
ssg11
(dp1117
g4
I00
sg5
F0.17777777777777778
sg6
F0.5
ssg13
(dp1118
g4
I01
sg5
F0.1
sg6
F1.0
ssa(dp1119
g2
(dp1120
g4
I00
sg5
F0.3404255319148936
sg6
F0.7446808510638299
ssg7
(dp1121
g4
I01
sg5
F0.2872340425531915
sg6
F1.0
ssg9
(dp1122
g4
I01
sg5
F0.7978723404255319
sg6
F1.0
ssg11
(dp1123
g4
I00
sg5
F0.2127659574468085
sg6
F0.7234042553191489
ssg13
(dp1124
g4
I01
sg5
F0.09574468085106383
sg6
F1.0
ssa(dp1125
g2
(dp1126
g4
I00
sg5
F0.3235294117647059
sg6
F0.4411764705882353
ssg7
(dp1127
g4
I00
sg5
F0.38235294117647056
sg6
F0.8529411764705882
ssg9
(dp1128
g4
I00
sg5
F0.7941176470588235
sg6
F0.8235294117647058
ssg11
(dp1129
g4
I00
sg5
F0.35294117647058826
sg6
F0.6176470588235294
ssg13
(dp1130
g4
I01
sg5
F0.5
sg6
F1.0
ssa(dp1131
g2
(dp1132
g4
I00
sg5
F0.3469387755102041
sg6
F0.6938775510204082
ssg7
(dp1133
g4
I01
sg5
F0.3673469387755102
sg6
F1.0
ssg9
(dp1134
g4
I01
sg5
F0.7959183673469388
sg6
F1.0
ssg11
(dp1135
g4
I00
sg5
F0.22448979591836735
sg6
F0.5102040816326531
ssg13
(dp1136
g4
I01
sg5
F0.20408163265306123
sg6
F1.0
ssa(dp1137
g2
(dp1138
g4
I00
sg5
F0.33962264150943394
sg6
F0.7169811320754718
ssg7
(dp1139
g4
I01
sg5
F0.37735849056603776
sg6
F1.0
ssg9
(dp1140
g4
I00
sg5
F0.7924528301886793
sg6
F0.9622641509433962
ssg11
(dp1141
g4
I00
sg5
F0.22641509433962265
sg6
F0.5849056603773585
ssg13
(dp1142
g4
I01
sg5
F0.18867924528301888
sg6
F1.0
ssa(dp1143
g2
(dp1144
g4
I00
sg5
F0.35
sg6
F0.65
ssg7
(dp1145
g4
I00
sg5
F0.275
sg6
F0.9625
ssg9
(dp1146
g4
I01
sg5
F0.8
sg6
F1.0
ssg11
(dp1147
g4
I00
sg5
F0.175
sg6
F0.48750000000000004
ssg13
(dp1148
g4
I01
sg5
F0.125
sg6
F1.0
ssa(dp1149
g2
(dp1150
g4
I00
sg5
F0.33962264150943394
sg6
F0.7547169811320755
ssg7
(dp1151
g4
I01
sg5
F0.41509433962264153
sg6
F1.0
ssg9
(dp1152
g4
I00
sg5
F0.7924528301886793
sg6
F0.9622641509433962
ssg11
(dp1153
g4
I00
sg5
F0.2641509433962264
sg6
F0.7547169811320755
ssg13
(dp1154
g4
I01
sg5
F0.16981132075471697
sg6
F1.0
ssa(dp1155
g2
(dp1156
g4
I00
sg5
F0.34782608695652173
sg6
F0.6811594202898551
ssg7
(dp1157
g4
I01
sg5
F0.3188405797101449
sg6
F1.0
ssg9
(dp1158
g4
I00
sg5
F0.7971014492753623
sg6
F0.9565217391304348
ssg11
(dp1159
g4
I00
sg5
F0.17391304347826086
sg6
F0.4492753623188406
ssg13
(dp1160
g4
I01
sg5
F0.14492753623188406
sg6
F1.0
ssa(dp1161
g2
(dp1162
g4
I00
sg5
F0.34146341463414637
sg6
F0.6341463414634146
ssg7
(dp1163
g4
I01
sg5
F0.4634146341463415
sg6
F1.0
ssg9
(dp1164
g4
I00
sg5
F0.7804878048780488
sg6
F0.975609756097561
ssg11
(dp1165
g4
I00
sg5
F0.34146341463414637
sg6
F0.7560975609756098
ssg13
(dp1166
g4
I01
sg5
F0.2682926829268293
sg6
F1.0
ssa(dp1167
g2
(dp1168
g4
I00
sg5
F0.34065934065934067
sg6
F0.8791208791208791
ssg7
(dp1169
g4
I01
sg5
F0.2967032967032967
sg6
F1.0
ssg9
(dp1170
g4
I00
sg5
F0.7912087912087912
sg6
F0.978021978021978
ssg11
(dp1171
g4
I00
sg5
F0.08791208791208792
sg6
F0.3076923076923077
ssg13
(dp1172
g4
I01
sg5
F0.0989010989010989
sg6
F1.0
ssa(dp1173
g2
(dp1174
g4
I00
sg5
F0.34177215189873417
sg6
F0.6582278481012658
ssg7
(dp1175
g4
I01
sg5
F0.25316455696202533
sg6
F1.0
ssg9
(dp1176
g4
I00
sg5
F0.7974683544303798
sg6
F0.9873417721518988
ssg11
(dp1177
g4
I00
sg5
F0.20253164556962025
sg6
F0.620253164556962
ssg13
(dp1178
g4
I01
sg5
F0.13924050632911392
sg6
F1.0
ssa(dp1179
g2
(dp1180
g4
I00
sg5
F0.34831460674157305
sg6
F0.9775280898876404
ssg7
(dp1181
g4
I01
sg5
F0.2696629213483146
sg6
F1.0
ssg9
(dp1182
g4
I01
sg5
F0.797752808988764
sg6
F1.0
ssg11
(dp1183
g4
I00
sg5
F0.12359550561797752
sg6
F0.651685393258427
ssg13
(dp1184
g4
I01
sg5
F0.10112359550561797
sg6
F1.0
ssa(dp1185
g2
(dp1186
g4
I00
sg5
F0.3380281690140845
sg6
F0.6338028169014085
ssg7
(dp1187
g4
I01
sg5
F0.29577464788732394
sg6
F1.0
ssg9
(dp1188
g4
I00
sg5
F0.7887323943661971
sg6
F0.9577464788732395
ssg11
(dp1189
g4
I00
sg5
F0.16901408450704225
sg6
F0.3943661971830986
ssg13
(dp1190
g4
I01
sg5
F0.14084507042253522
sg6
F1.0
ssa(dp1191
g2
(dp1192
g4
I00
sg5
F0.3333333333333333
sg6
F0.7272727272727273
ssg7
(dp1193
g4
I01
sg5
F0.5454545454545454
sg6
F1.0
ssg9
(dp1194
g4
I00
sg5
F0.7878787878787878
sg6
F0.9393939393939394
ssg11
(dp1195
g4
I00
sg5
F0.15151515151515152
sg6
F0.36363636363636365
ssg13
(dp1196
g4
I01
sg5
F0.2727272727272727
sg6
F1.0
ssa(dp1197
g2
(dp1198
g4
I00
sg5
F0.34328358208955223
sg6
F0.6268656716417911
ssg7
(dp1199
g4
I00
sg5
F0.29850746268656714
sg6
F0.9850746268656716
ssg9
(dp1200
g4
I01
sg5
F0.7910447761194029
sg6
F1.0
ssg11
(dp1201
g4
I00
sg5
F0.14925373134328357
sg6
F0.35820895522388063
ssg13
(dp1202
g4
I01
sg5
F0.14925373134328357
sg6
F1.0
ssa(dp1203
g2
(dp1204
g4
I00
sg5
F0.32432432432432434
sg6
F0.4864864864864865
ssg7
(dp1205
g4
I00
sg5
F0.4594594594594595
sg6
F0.972972972972973
ssg9
(dp1206
g4
I00
sg5
F0.7837837837837838
sg6
F0.8918918918918919
ssg11
(dp1207
g4
I00
sg5
F0.2972972972972973
sg6
F0.6216216216216216
ssg13
(dp1208
g4
I01
sg5
F0.32432432432432434
sg6
F1.0
ssa(dp1209
g2
(dp1210
g4
I00
sg5
F0.3333333333333333
sg6
F0.7222222222222222
ssg7
(dp1211
g4
I00
sg5
F0.4166666666666667
sg6
F0.9722222222222222
ssg9
(dp1212
g4
I00
sg5
F0.7777777777777778
sg6
F0.9722222222222222
ssg11
(dp1213
g4
I00
sg5
F0.3055555555555556
sg6
F0.5833333333333333
ssg13
(dp1214
g4
I01
sg5
F0.3611111111111111
sg6
F1.0
ssa(dp1215
g2
(dp1216
g4
I00
sg5
F0.3448275862068966
sg6
F0.7241379310344828
ssg7
(dp1217
g4
I01
sg5
F0.39655172413793105
sg6
F1.0
ssg9
(dp1218
g4
I00
sg5
F0.7931034482758621
sg6
F0.9482758620689655
ssg11
(dp1219
g4
I00
sg5
F0.13793103448275862
sg6
F0.2931034482758621
ssg13
(dp1220
g4
I01
sg5
F0.1724137931034483
sg6
F1.0
ssa(dp1221
g2
(dp1222
g4
I00
sg5
F0.3404255319148936
sg6
F0.851063829787234
ssg7
(dp1223
g4
I01
sg5
F0.2978723404255319
sg6
F1.0
ssg9
(dp1224
g4
I01
sg5
F0.7978723404255319
sg6
F1.0
ssg11
(dp1225
g4
I00
sg5
F0.18085106382978725
sg6
F0.7553191489361702
ssg13
(dp1226
g4
I01
sg5
F0.09574468085106383
sg6
F1.0
ssa(dp1227
g2
(dp1228
g4
I00
sg5
F0.3409090909090909
sg6
F0.6818181818181819
ssg7
(dp1229
g4
I01
sg5
F0.36363636363636365
sg6
F1.0
ssg9
(dp1230
g4
I00
sg5
F0.7954545454545454
sg6
F0.9772727272727273
ssg11
(dp1231
g4
I00
sg5
F0.2727272727272727
sg6
F0.75
ssg13
(dp1232
g4
I01
sg5
F0.20454545454545456
sg6
F1.0
ssa(dp1233
g2
(dp1234
g4
I00
sg5
F0.3484848484848485
sg6
F0.7424242424242424
ssg7
(dp1235
g4
I01
sg5
F0.3484848484848485
sg6
F1.0
ssg9
(dp1236
g4
I00
sg5
F0.7878787878787878
sg6
F0.9848484848484849
ssg11
(dp1237
g4
I00
sg5
F0.22727272727272727
sg6
F0.6363636363636364
ssg13
(dp1238
g4
I01
sg5
F0.13636363636363635
sg6
F1.0
ssa(dp1239
g2
(dp1240
g4
I00
sg5
F0.34782608695652173
sg6
F0.8152173913043479
ssg7
(dp1241
g4
I01
sg5
F0.29347826086956524
sg6
F1.0
ssg9
(dp1242
g4
I01
sg5
F0.7934782608695652
sg6
F1.0
ssg11
(dp1243
g4
I00
sg5
F0.15217391304347827
sg6
F0.5543478260869565
ssg13
(dp1244
g4
I01
sg5
F0.09782608695652174
sg6
F1.0
ssa(dp1245
g2
(dp1246
g4
I00
sg5
F0.34615384615384615
sg6
F0.7307692307692308
ssg7
(dp1247
g4
I01
sg5
F0.36538461538461536
sg6
F1.0
ssg9
(dp1248
g4
I00
sg5
F0.7884615384615384
sg6
F0.9615384615384616
ssg11
(dp1249
g4
I00
sg5
F0.21153846153846154
sg6
F0.6153846153846154
ssg13
(dp1250
g4
I01
sg5
F0.17307692307692307
sg6
F1.0
ssa(dp1251
g2
(dp1252
g4
I00
sg5
F0.34328358208955223
sg6
F0.7761194029850746
ssg7
(dp1253
g4
I01
sg5
F0.31343283582089554
sg6
F1.0
ssg9
(dp1254
g4
I00
sg5
F0.7910447761194029
sg6
F0.9552238805970149
ssg11
(dp1255
g4
I00
sg5
F0.16417910447761194
sg6
F0.4776119402985075
ssg13
(dp1256
g4
I01
sg5
F0.16417910447761194
sg6
F1.0
ssa(dp1257
g2
(dp1258
g4
I00
sg5
F0.33766233766233766
sg6
F0.7922077922077921
ssg7
(dp1259
g4
I01
sg5
F0.3246753246753247
sg6
F1.0
ssg9
(dp1260
g4
I01
sg5
F0.7922077922077922
sg6
F1.0
ssg11
(dp1261
g4
I00
sg5
F0.15584415584415584
sg6
F0.6363636363636364
ssg13
(dp1262
g4
I01
sg5
F0.12987012987012986
sg6
F1.0
ssa(dp1263
g2
(dp1264
g4
I00
sg5
F0.3472222222222222
sg6
F0.8333333333333334
ssg7
(dp1265
g4
I01
sg5
F0.3611111111111111
sg6
F1.0
ssg9
(dp1266
g4
I00
sg5
F0.7916666666666666
sg6
F0.9861111111111112
ssg11
(dp1267
g4
I00
sg5
F0.1527777777777778
sg6
F0.5972222222222222
ssg13
(dp1268
g4
I01
sg5
F0.125
sg6
F1.0
ssa(dp1269
g2
(dp1270
g4
I00
sg5
F0.3448275862068966
sg6
F0.6781609195402298
ssg7
(dp1271
g4
I01
sg5
F0.28735632183908044
sg6
F1.0
ssg9
(dp1272
g4
I00
sg5
F0.7931034482758621
sg6
F0.9655172413793104
ssg11
(dp1273
g4
I00
sg5
F0.16091954022988506
sg6
F0.5287356321839081
ssg13
(dp1274
g4
I01
sg5
F0.10344827586206896
sg6
F1.0
ssa(dp1275
g2
(dp1276
g4
I00
sg5
F0.34444444444444444
sg6
F0.7777777777777778
ssg7
(dp1277
g4
I01
sg5
F0.28888888888888886
sg6
F1.0
ssg9
(dp1278
g4
I00
sg5
F0.8
sg6
F0.9666666666666667
ssg11
(dp1279
g4
I00
sg5
F0.18888888888888888
sg6
F0.6666666666666667
ssg13
(dp1280
g4
I01
sg5
F0.1
sg6
F1.0
ssa(dp1281
g2
(dp1282
g4
I00
sg5
F0.34615384615384615
sg6
F0.7884615384615384
ssg7
(dp1283
g4
I01
sg5
F0.36538461538461536
sg6
F1.0
ssg9
(dp1284
g4
I00
sg5
F0.7884615384615384
sg6
F0.9807692307692307
ssg11
(dp1285
g4
I00
sg5
F0.19230769230769232
sg6
F0.42307692307692313
ssg13
(dp1286
g4
I01
sg5
F0.25
sg6
F1.0
ssa(dp1287
g2
(dp1288
g4
I00
sg5
F0.3384615384615385
sg6
F0.676923076923077
ssg7
(dp1289
g4
I01
sg5
F0.3384615384615385
sg6
F1.0
ssg9
(dp1290
g4
I00
sg5
F0.8
sg6
F0.9846153846153847
ssg11
(dp1291
g4
I00
sg5
F0.2
sg6
F0.6153846153846154
ssg13
(dp1292
g4
I01
sg5
F0.13846153846153847
sg6
F1.0
ssa(dp1293
g2
(dp1294
g4
I00
sg5
F0.34408602150537637
sg6
F0.7634408602150538
ssg7
(dp1295
g4
I01
sg5
F0.26881720430107525
sg6
F1.0
ssg9
(dp1296
g4
I01
sg5
F0.7956989247311828
sg6
F1.0
ssg11
(dp1297
g4
I00
sg5
F0.12903225806451613
sg6
F0.4946236559139785
ssg13
(dp1298
g4
I01
sg5
F0.0967741935483871
sg6
F1.0
ssa(dp1299
g2
(dp1300
g4
I00
sg5
F0.34065934065934067
sg6
F0.9120879120879121
ssg7
(dp1301
g4
I01
sg5
F0.27472527472527475
sg6
F1.0
ssg9
(dp1302
g4
I01
sg5
F0.7912087912087912
sg6
F1.0
ssg11
(dp1303
g4
I00
sg5
F0.12087912087912088
sg6
F0.43956043956043955
ssg13
(dp1304
g4
I01
sg5
F0.0989010989010989
sg6
F1.0
ssa(dp1305
g2
(dp1306
g4
I00
sg5
F0.34285714285714286
sg6
F0.48571428571428577
ssg7
(dp1307
g4
I01
sg5
F0.42857142857142855
sg6
F1.0
ssg9
(dp1308
g4
I00
sg5
F0.8
sg6
F0.8857142857142857
ssg11
(dp1309
g4
I00
sg5
F0.2
sg6
F0.4
ssg13
(dp1310
g4
I01
sg5
F0.2857142857142857
sg6
F1.0
ssa(dp1311
g2
(dp1312
g4
I00
sg5
F0.345679012345679
sg6
F0.8024691358024691
ssg7
(dp1313
g4
I01
sg5
F0.32098765432098764
sg6
F1.0
ssg9
(dp1314
g4
I00
sg5
F0.7901234567901234
sg6
F0.962962962962963
ssg11
(dp1315
g4
I00
sg5
F0.18518518518518517
sg6
F0.617283950617284
ssg13
(dp1316
g4
I01
sg5
F0.1111111111111111
sg6
F1.0
ssa(dp1317
g2
(dp1318
g4
I00
sg5
F0.3333333333333333
sg6
F0.8627450980392157
ssg7
(dp1319
g4
I01
sg5
F0.37254901960784315
sg6
F1.0
ssg9
(dp1320
g4
I00
sg5
F0.7843137254901961
sg6
F0.9607843137254902
ssg11
(dp1321
g4
I00
sg5
F0.2549019607843137
sg6
F0.6862745098039216
ssg13
(dp1322
g4
I01
sg5
F0.19607843137254902
sg6
F1.0
ssa(dp1323
g2
(dp1324
g4
I00
sg5
F0.3466666666666667
sg6
F0.8933333333333333
ssg7
(dp1325
g4
I01
sg5
F0.30666666666666664
sg6
F1.0
ssg9
(dp1326
g4
I01
sg5
F0.8
sg6
F1.0
ssg11
(dp1327
g4
I00
sg5
F0.16
sg6
F0.56
ssg13
(dp1328
g4
I01
sg5
F0.12
sg6
F1.0
ssa(dp1329
g2
(dp1330
g4
I00
sg5
F0.34065934065934067
sg6
F0.8571428571428572
ssg7
(dp1331
g4
I01
sg5
F0.27472527472527475
sg6
F1.0
ssg9
(dp1332
g4
I00
sg5
F0.7912087912087912
sg6
F0.9560439560439561
ssg11
(dp1333
g4
I00
sg5
F0.0989010989010989
sg6
F0.4285714285714286
ssg13
(dp1334
g4
I01
sg5
F0.0989010989010989
sg6
F1.0
ssa(dp1335
g2
(dp1336
g4
I00
sg5
F0.3404255319148936
sg6
F0.6382978723404256
ssg7
(dp1337
g4
I01
sg5
F0.46808510638297873
sg6
F1.0
ssg9
(dp1338
g4
I01
sg5
F0.7872340425531915
sg6
F1.0
ssg11
(dp1339
g4
I00
sg5
F0.2553191489361702
sg6
F0.7021276595744681
ssg13
(dp1340
g4
I01
sg5
F0.2127659574468085
sg6
F1.0
ssa(dp1341
g2
(dp1342
g4
I00
sg5
F0.34146341463414637
sg6
F0.7560975609756098
ssg7
(dp1343
g4
I01
sg5
F0.3048780487804878
sg6
F1.0
ssg9
(dp1344
g4
I00
sg5
F0.7926829268292683
sg6
F0.9146341463414634
ssg11
(dp1345
g4
I00
sg5
F0.15853658536585366
sg6
F0.47560975609756095
ssg13
(dp1346
g4
I01
sg5
F0.10975609756097561
sg6
F1.0
ssa(dp1347
g2
(dp1348
g4
I00
sg5
F0.3492063492063492
sg6
F0.6507936507936508
ssg7
(dp1349
g4
I01
sg5
F0.3492063492063492
sg6
F1.0
ssg9
(dp1350
g4
I00
sg5
F0.7936507936507936
sg6
F0.9682539682539683
ssg11
(dp1351
g4
I00
sg5
F0.12698412698412698
sg6
F0.3650793650793651
ssg13
(dp1352
g4
I01
sg5
F0.14285714285714285
sg6
F1.0
ssa(dp1353
g2
(dp1354
g4
I00
sg5
F0.33962264150943394
sg6
F0.6226415094339622
ssg7
(dp1355
g4
I01
sg5
F0.37735849056603776
sg6
F1.0
ssg9
(dp1356
g4
I00
sg5
F0.7924528301886793
sg6
F0.9056603773584906
ssg11
(dp1357
g4
I00
sg5
F0.24528301886792453
sg6
F0.5660377358490566
ssg13
(dp1358
g4
I01
sg5
F0.18867924528301888
sg6
F1.0
ssa(dp1359
g2
(dp1360
g4
I00
sg5
F0.3333333333333333
sg6
F0.6222222222222222
ssg7
(dp1361
g4
I01
sg5
F0.5111111111111111
sg6
F1.0
ssg9
(dp1362
g4
I01
sg5
F0.8
sg6
F1.0
ssg11
(dp1363
g4
I00
sg5
F0.2
sg6
F0.5333333333333333
ssg13
(dp1364
g4
I01
sg5
F0.2
sg6
F1.0
ssa(dp1365
g2
(dp1366
g4
I00
sg5
F0.3434343434343434
sg6
F0.9595959595959596
ssg7
(dp1367
g4
I01
sg5
F0.2727272727272727
sg6
F1.0
ssg9
(dp1368
g4
I01
sg5
F0.797979797979798
sg6
F1.0
ssg11
(dp1369
g4
I00
sg5
F0.12121212121212122
sg6
F0.41414141414141414
ssg13
(dp1370
g4
I01
sg5
F0.09090909090909091
sg6
F1.0
ssa(dp1371
g2
(dp1372
g4
I00
sg5
F0.3392857142857143
sg6
F0.5535714285714286
ssg7
(dp1373
g4
I01
sg5
F0.35714285714285715
sg6
F1.0
ssg9
(dp1374
g4
I00
sg5
F0.7857142857142857
sg6
F0.9821428571428571
ssg11
(dp1375
g4
I00
sg5
F0.23214285714285715
sg6
F0.4821428571428571
ssg13
(dp1376
g4
I01
sg5
F0.16071428571428573
sg6
F1.0
ssa(dp1377
g2
(dp1378
g4
I00
sg5
F0.34615384615384615
sg6
F0.5576923076923077
ssg7
(dp1379
g4
I01
sg5
F0.40384615384615385
sg6
F1.0
ssg9
(dp1380
g4
I00
sg5
F0.7884615384615384
sg6
F0.9230769230769231
ssg11
(dp1381
g4
I00
sg5
F0.2692307692307692
sg6
F0.7115384615384616
ssg13
(dp1382
g4
I01
sg5
F0.17307692307692307
sg6
F1.0
ssa(dp1383
g2
(dp1384
g4
I00
sg5
F0.34523809523809523
sg6
F0.7142857142857143
ssg7
(dp1385
g4
I01
sg5
F0.2857142857142857
sg6
F1.0
ssg9
(dp1386
g4
I01
sg5
F0.7976190476190477
sg6
F1.0
ssg11
(dp1387
g4
I00
sg5
F0.16666666666666666
sg6
F0.5357142857142857
ssg13
(dp1388
g4
I01
sg5
F0.10714285714285714
sg6
F1.0
ssa(dp1389
g2
(dp1390
g4
I00
sg5
F0.3333333333333333
sg6
F0.5625
ssg7
(dp1391
g4
I00
sg5
F0.4166666666666667
sg6
F0.9791666666666666
ssg9
(dp1392
g4
I00
sg5
F0.7916666666666666
sg6
F0.9375
ssg11
(dp1393
g4
I00
sg5
F0.2708333333333333
sg6
F0.6458333333333333
ssg13
(dp1394
g4
I01
sg5
F0.20833333333333334
sg6
F1.0
ssa(dp1395
g2
(dp1396
g4
I00
sg5
F0.34285714285714286
sg6
F0.6
ssg7
(dp1397
g4
I01
sg5
F0.4857142857142857
sg6
F1.0
ssg9
(dp1398
g4
I00
sg5
F0.8
sg6
F0.9142857142857143
ssg11
(dp1399
g4
I00
sg5
F0.3142857142857143
sg6
F0.6571428571428571
ssg13
(dp1400
g4
I01
sg5
F0.3142857142857143
sg6
F1.0
ssa(dp1401
g2
(dp1402
g4
I00
sg5
F0.3389830508474576
sg6
F0.7966101694915254
ssg7
(dp1403
g4
I01
sg5
F0.4067796610169492
sg6
F1.0
ssg9
(dp1404
g4
I00
sg5
F0.7966101694915254
sg6
F0.9661016949152542
ssg11
(dp1405
g4
I00
sg5
F0.15254237288135594
sg6
F0.4576271186440678
ssg13
(dp1406
g4
I01
sg5
F0.15254237288135594
sg6
F1.0
ssa(dp1407
g2
(dp1408
g4
I00
sg5
F0.34285714285714286
sg6
F0.5714285714285714
ssg7
(dp1409
g4
I01
sg5
F0.5142857142857142
sg6
F1.0
ssg9
(dp1410
g4
I00
sg5
F0.8
sg6
F0.8857142857142857
ssg11
(dp1411
g4
I00
sg5
F0.22857142857142856
sg6
F0.4571428571428572
ssg13
(dp1412
g4
I01
sg5
F0.3142857142857143
sg6
F1.0
ssa(dp1413
g2
(dp1414
g4
I00
sg5
F0.34375
sg6
F0.765625
ssg7
(dp1415
g4
I01
sg5
F0.359375
sg6
F1.0
ssg9
(dp1416
g4
I01
sg5
F0.796875
sg6
F1.0
ssg11
(dp1417
g4
I00
sg5
F0.1875
sg6
F0.703125
ssg13
(dp1418
g4
I01
sg5
F0.15625
sg6
F1.0
ssa(dp1419
g2
(dp1420
g4
I00
sg5
F0.33766233766233766
sg6
F0.5844155844155844
ssg7
(dp1421
g4
I01
sg5
F0.2987012987012987
sg6
F1.0
ssg9
(dp1422
g4
I00
sg5
F0.7922077922077922
sg6
F0.987012987012987
ssg11
(dp1423
g4
I00
sg5
F0.11688311688311688
sg6
F0.4285714285714286
ssg13
(dp1424
g4
I01
sg5
F0.12987012987012986
sg6
F1.0
ssa(dp1425
g2
(dp1426
g4
I00
sg5
F0.34210526315789475
sg6
F0.5
ssg7
(dp1427
g4
I01
sg5
F0.4473684210526316
sg6
F1.0
ssg9
(dp1428
g4
I00
sg5
F0.7894736842105263
sg6
F0.9210526315789473
ssg11
(dp1429
g4
I00
sg5
F0.2631578947368421
sg6
F0.39473684210526316
ssg13
(dp1430
g4
I01
sg5
F0.2894736842105263
sg6
F1.0
ssa(dp1431
g2
(dp1432
g4
I00
sg5
F0.3409090909090909
sg6
F0.8522727272727273
ssg7
(dp1433
g4
I01
sg5
F0.32954545454545453
sg6
F1.0
ssg9
(dp1434
g4
I00
sg5
F0.7954545454545454
sg6
F0.9886363636363636
ssg11
(dp1435
g4
I00
sg5
F0.18181818181818182
sg6
F0.5795454545454546
ssg13
(dp1436
g4
I01
sg5
F0.10227272727272728
sg6
F1.0
ssa(dp1437
g2
(dp1438
g4
I00
sg5
F0.3333333333333333
sg6
F0.4
ssg7
(dp1439
g4
I00
sg5
F0.4
sg6
F0.9333333333333333
ssg9
(dp1440
g4
I00
sg5
F0.8
sg6
F0.9333333333333333
ssg11
(dp1441
g4
I00
sg5
F0.36666666666666664
sg6
F0.5666666666666667
ssg13
(dp1442
g4
I01
sg5
F0.4666666666666667
sg6
F1.0
ssa(dp1443
g2
(dp1444
g4
I00
sg5
F0.3333333333333333
sg6
F0.5
ssg7
(dp1445
g4
I01
sg5
F0.5333333333333333
sg6
F1.0
ssg9
(dp1446
g4
I00
sg5
F0.8
sg6
F0.9666666666666667
ssg11
(dp1447
g4
I00
sg5
F0.26666666666666666
sg6
F0.5
ssg13
(dp1448
g4
I01
sg5
F0.36666666666666664
sg6
F1.0
ssa(dp1449
g2
(dp1450
g4
I00
sg5
F0.34375
sg6
F0.703125
ssg7
(dp1451
g4
I01
sg5
F0.375
sg6
F1.0
ssg9
(dp1452
g4
I01
sg5
F0.796875
sg6
F1.0
ssg11
(dp1453
g4
I00
sg5
F0.171875
sg6
F0.53125
ssg13
(dp1454
g4
I01
sg5
F0.15625
sg6
F1.0
ssa(dp1455
g2
(dp1456
g4
I00
sg5
F0.34210526315789475
sg6
F0.6842105263157895
ssg7
(dp1457
g4
I01
sg5
F0.3157894736842105
sg6
F1.0
ssg9
(dp1458
g4
I01
sg5
F0.7894736842105263
sg6
F1.0
ssg11
(dp1459
g4
I00
sg5
F0.21052631578947367
sg6
F0.6842105263157895
ssg13
(dp1460
g4
I01
sg5
F0.13157894736842105
sg6
F1.0
ssa(dp1461
g2
(dp1462
g4
I00
sg5
F0.3333333333333333
sg6
F0.6666666666666667
ssg7
(dp1463
g4
I01
sg5
F0.5151515151515151
sg6
F1.0
ssg9
(dp1464
g4
I00
sg5
F0.7878787878787878
sg6
F0.8787878787878788
ssg11
(dp1465
g4
I00
sg5
F0.36363636363636365
sg6
F0.7878787878787878
ssg13
(dp1466
g4
I01
sg5
F0.3939393939393939
sg6
F1.0
ssa(dp1467
g2
(dp1468
g4
I00
sg5
F0.3333333333333333
sg6
F0.6190476190476191
ssg7
(dp1469
g4
I01
sg5
F0.42857142857142855
sg6
F1.0
ssg9
(dp1470
g4
I00
sg5
F0.7857142857142857
sg6
F0.9047619047619048
ssg11
(dp1471
g4
I00
sg5
F0.2619047619047619
sg6
F0.7142857142857143
ssg13
(dp1472
g4
I01
sg5
F0.23809523809523808
sg6
F1.0
ssa(dp1473
g2
(dp1474
g4
I00
sg5
F0.3333333333333333
sg6
F0.6666666666666667
ssg7
(dp1475
g4
I00
sg5
F0.46153846153846156
sg6
F0.9743589743589743
ssg9
(dp1476
g4
I00
sg5
F0.7948717948717948
sg6
F0.9487179487179487
ssg11
(dp1477
g4
I00
sg5
F0.3333333333333333
sg6
F0.8205128205128205
ssg13
(dp1478
g4
I01
sg5
F0.3076923076923077
sg6
F1.0
ssa(dp1479
g2
(dp1480
g4
I00
sg5
F0.3488372093023256
sg6
F0.8255813953488372
ssg7
(dp1481
g4
I01
sg5
F0.313953488372093
sg6
F1.0
ssg9
(dp1482
g4
I00
sg5
F0.7906976744186046
sg6
F0.9767441860465116
ssg11
(dp1483
g4
I00
sg5
F0.1744186046511628
sg6
F0.5
ssg13
(dp1484
g4
I01
sg5
F0.10465116279069768
sg6
F1.0
ssa(dp1485
g2
(dp1486
g4
I00
sg5
F0.3333333333333333
sg6
F0.5128205128205128
ssg7
(dp1487
g4
I00
sg5
F0.4358974358974359
sg6
F0.9487179487179487
ssg9
(dp1488
g4
I00
sg5
F0.7948717948717948
sg6
F0.9230769230769231
ssg11
(dp1489
g4
I00
sg5
F0.20512820512820512
sg6
F0.2564102564102564
ssg13
(dp1490
g4
I01
sg5
F0.358974358974359
sg6
F1.0
ssa(dp1491
g2
(dp1492
g4
I00
sg5
F0.34328358208955223
sg6
F0.5373134328358209
ssg7
(dp1493
g4
I01
sg5
F0.31343283582089554
sg6
F1.0
ssg9
(dp1494
g4
I00
sg5
F0.7910447761194029
sg6
F0.9402985074626866
ssg11
(dp1495
g4
I00
sg5
F0.208955223880597
sg6
F0.5074626865671642
ssg13
(dp1496
g4
I01
sg5
F0.14925373134328357
sg6
F1.0
ssa(dp1497
g2
(dp1498
g4
I00
sg5
F0.3380281690140845
sg6
F0.6338028169014085
ssg7
(dp1499
g4
I01
sg5
F0.29577464788732394
sg6
F1.0
ssg9
(dp1500
g4
I00
sg5
F0.7887323943661971
sg6
F0.9859154929577465
ssg11
(dp1501
g4
I00
sg5
F0.2112676056338028
sg6
F0.647887323943662
ssg13
(dp1502
g4
I01
sg5
F0.16901408450704225
sg6
F1.0
ssa(dp1503
g2
(dp1504
g4
I00
sg5
F0.3333333333333333
sg6
F0.5686274509803921
ssg7
(dp1505
g4
I01
sg5
F0.3333333333333333
sg6
F1.0
ssg9
(dp1506
g4
I00
sg5
F0.7843137254901961
sg6
F0.9411764705882353
ssg11
(dp1507
g4
I00
sg5
F0.27450980392156865
sg6
F0.9215686274509804
ssg13
(dp1508
g4
I01
sg5
F0.17647058823529413
sg6
F1.0
ssa(dp1509
g2
(dp1510
g4
I00
sg5
F0.34523809523809523
sg6
F0.8214285714285714
ssg7
(dp1511
g4
I01
sg5
F0.2857142857142857
sg6
F1.0
ssg9
(dp1512
g4
I00
sg5
F0.7976190476190477
sg6
F0.9761904761904762
ssg11
(dp1513
g4
I00
sg5
F0.11904761904761904
sg6
F0.4285714285714286
ssg13
(dp1514
g4
I01
sg5
F0.10714285714285714
sg6
F1.0
ssa(dp1515
g2
(dp1516
g4
I00
sg5
F0.3387096774193548
sg6
F0.7096774193548387
ssg7
(dp1517
g4
I01
sg5
F0.3387096774193548
sg6
F1.0
ssg9
(dp1518
g4
I01
sg5
F0.7903225806451613
sg6
F1.0
ssg11
(dp1519
g4
I00
sg5
F0.1774193548387097
sg6
F0.4354838709677419
ssg13
(dp1520
g4
I01
sg5
F0.16129032258064516
sg6
F1.0
ssa(dp1521
g2
(dp1522
g4
I00
sg5
F0.3473684210526316
sg6
F0.8736842105263158
ssg7
(dp1523
g4
I01
sg5
F0.28421052631578947
sg6
F1.0
ssg9
(dp1524
g4
I01
sg5
F0.8
sg6
F1.0
ssg11
(dp1525
g4
I00
sg5
F0.11578947368421053
sg6
F0.4
ssg13
(dp1526
g4
I01
sg5
F0.09473684210526316
sg6
F1.0
ssa(dp1527
g2
(dp1528
g4
I00
sg5
F0.34210526315789475
sg6
F0.7105263157894737
ssg7
(dp1529
g4
I01
sg5
F0.3026315789473684
sg6
F1.0
ssg9
(dp1530
g4
I00
sg5
F0.7894736842105263
sg6
F0.9868421052631579
ssg11
(dp1531
g4
I00
sg5
F0.19736842105263158
sg6
F0.7763157894736842
ssg13
(dp1532
g4
I01
sg5
F0.11842105263157894
sg6
F1.0
ssa(dp1533
g2
(dp1534
g4
I00
sg5
F0.34615384615384615
sg6
F0.5961538461538461
ssg7
(dp1535
g4
I01
sg5
F0.4230769230769231
sg6
F1.0
ssg9
(dp1536
g4
I00
sg5
F0.7884615384615384
sg6
F0.9615384615384616
ssg11
(dp1537
g4
I00
sg5
F0.28846153846153844
sg6
F0.8076923076923077
ssg13
(dp1538
g4
I01
sg5
F0.19230769230769232
sg6
F1.0
ssa(dp1539
g2
(dp1540
g4
I00
sg5
F0.34615384615384615
sg6
F0.5897435897435898
ssg7
(dp1541
g4
I01
sg5
F0.3333333333333333
sg6
F1.0
ssg9
(dp1542
g4
I00
sg5
F0.7948717948717948
sg6
F0.9743589743589743
ssg11
(dp1543
g4
I00
sg5
F0.1794871794871795
sg6
F0.5384615384615384
ssg13
(dp1544
g4
I01
sg5
F0.11538461538461539
sg6
F1.0
ssa(dp1545
g2
(dp1546
g4
I00
sg5
F0.3387096774193548
sg6
F0.7903225806451613
ssg7
(dp1547
g4
I01
sg5
F0.3064516129032258
sg6
F1.0
ssg9
(dp1548
g4
I01
sg5
F0.7903225806451613
sg6
F1.0
ssg11
(dp1549
g4
I00
sg5
F0.1774193548387097
sg6
F0.7741935483870968
ssg13
(dp1550
g4
I01
sg5
F0.14516129032258066
sg6
F1.0
ssa(dp1551
g2
(dp1552
g4
I00
sg5
F0.3434343434343434
sg6
F0.7171717171717171
ssg7
(dp1553
g4
I01
sg5
F0.2828282828282828
sg6
F1.0
ssg9
(dp1554
g4
I00
sg5
F0.797979797979798
sg6
F0.9797979797979798
ssg11
(dp1555
g4
I00
sg5
F0.20202020202020202
sg6
F0.6868686868686869
ssg13
(dp1556
g4
I01
sg5
F0.09090909090909091
sg6
F1.0
ssa(dp1557
g2
(dp1558
g4
I00
sg5
F0.3333333333333333
sg6
F0.6041666666666667
ssg7
(dp1559
g4
I01
sg5
F0.3958333333333333
sg6
F1.0
ssg9
(dp1560
g4
I00
sg5
F0.7916666666666666
sg6
F0.9791666666666666
ssg11
(dp1561
g4
I00
sg5
F0.22916666666666666
sg6
F0.41666666666666663
ssg13
(dp1562
g4
I01
sg5
F0.20833333333333334
sg6
F1.0
ssa(dp1563
g2
(dp1564
g4
I00
sg5
F0.3488372093023256
sg6
F0.8488372093023255
ssg7
(dp1565
g4
I01
sg5
F0.26744186046511625
sg6
F1.0
ssg9
(dp1566
g4
I00
sg5
F0.7906976744186046
sg6
F0.9767441860465116
ssg11
(dp1567
g4
I00
sg5
F0.16279069767441862
sg6
F0.686046511627907
ssg13
(dp1568
g4
I01
sg5
F0.10465116279069768
sg6
F1.0
ssa(dp1569
g2
(dp1570
g4
I00
sg5
F0.3409090909090909
sg6
F0.7727272727272727
ssg7
(dp1571
g4
I00
sg5
F0.2727272727272727
sg6
F0.9659090909090909
ssg9
(dp1572
g4
I00
sg5
F0.7954545454545454
sg6
F0.9886363636363636
ssg11
(dp1573
g4
I00
sg5
F0.13636363636363635
sg6
F0.48863636363636365
ssg13
(dp1574
g4
I01
sg5
F0.10227272727272728
sg6
F1.0
ssa(dp1575
g2
(dp1576
g4
I00
sg5
F0.3411764705882353
sg6
F0.6588235294117647
ssg7
(dp1577
g4
I01
sg5
F0.2823529411764706
sg6
F1.0
ssg9
(dp1578
g4
I00
sg5
F0.8
sg6
F0.9647058823529412
ssg11
(dp1579
g4
I00
sg5
F0.1411764705882353
sg6
F0.5647058823529412
ssg13
(dp1580
g4
I01
sg5
F0.11764705882352941
sg6
F1.0
ssa(dp1581
g2
(dp1582
g4
I00
sg5
F0.3384615384615385
sg6
F0.6153846153846154
ssg7
(dp1583
g4
I01
sg5
F0.3384615384615385
sg6
F1.0
ssg9
(dp1584
g4
I00
sg5
F0.8
sg6
F0.9230769230769231
ssg11
(dp1585
g4
I00
sg5
F0.12307692307692308
sg6
F0.4461538461538461
ssg13
(dp1586
g4
I01
sg5
F0.16923076923076924
sg6
F1.0
ssa(dp1587
g2
(dp1588
g4
I00
sg5
F0.3333333333333333
sg6
F0.5333333333333333
ssg7
(dp1589
g4
I00
sg5
F0.4666666666666667
sg6
F0.9333333333333333
ssg9
(dp1590
g4
I00
sg5
F0.8
sg6
F0.8666666666666667
ssg11
(dp1591
g4
I00
sg5
F0.3
sg6
F0.6666666666666667
ssg13
(dp1592
g4
I01
sg5
F0.36666666666666664
sg6
F1.0
ssa(dp1593
g2
(dp1594
g4
I00
sg5
F0.3469387755102041
sg6
F0.5918367346938775
ssg7
(dp1595
g4
I01
sg5
F0.3673469387755102
sg6
F1.0
ssg9
(dp1596
g4
I00
sg5
F0.7959183673469388
sg6
F0.9591836734693877
ssg11
(dp1597
g4
I00
sg5
F0.14285714285714285
sg6
F0.326530612244898
ssg13
(dp1598
g4
I01
sg5
F0.20408163265306123
sg6
F1.0
ssa(dp1599
g2
(dp1600
g4
I00
sg5
F0.3333333333333333
sg6
F0.6111111111111112
ssg7
(dp1601
g4
I01
sg5
F0.37037037037037035
sg6
F1.0
ssg9
(dp1602
g4
I01
sg5
F0.7962962962962963
sg6
F1.0
ssg11
(dp1603
g4
I00
sg5
F0.25925925925925924
sg6
F0.537037037037037
ssg13
(dp1604
g4
I01
sg5
F0.18518518518518517
sg6
F1.0
ssa(dp1605
g2
(dp1606
g4
I00
sg5
F0.3424657534246575
sg6
F0.7671232876712328
ssg7
(dp1607
g4
I01
sg5
F0.3013698630136986
sg6
F1.0
ssg9
(dp1608
g4
I01
sg5
F0.7945205479452054
sg6
F1.0
ssg11
(dp1609
g4
I00
sg5
F0.1780821917808219
sg6
F0.5616438356164384
ssg13
(dp1610
g4
I01
sg5
F0.1506849315068493
sg6
F1.0
ssa(dp1611
g2
(dp1612
g4
I00
sg5
F0.34615384615384615
sg6
F0.5769230769230769
ssg7
(dp1613
g4
I00
sg5
F0.38461538461538464
sg6
F0.9807692307692307
ssg9
(dp1614
g4
I00
sg5
F0.7884615384615384
sg6
F0.9807692307692307
ssg11
(dp1615
g4
I00
sg5
F0.21153846153846154
sg6
F0.5
ssg13
(dp1616
g4
I01
sg5
F0.25
sg6
F1.0
ssa(dp1617
g2
(dp1618
g4
I00
sg5
F0.33766233766233766
sg6
F0.6493506493506493
ssg7
(dp1619
g4
I01
sg5
F0.3246753246753247
sg6
F1.0
ssg9
(dp1620
g4
I00
sg5
F0.7922077922077922
sg6
F0.961038961038961
ssg11
(dp1621
g4
I00
sg5
F0.18181818181818182
sg6
F0.6883116883116883
ssg13
(dp1622
g4
I01
sg5
F0.11688311688311688
sg6
F1.0
ssa(dp1623
g2
(dp1624
g4
I00
sg5
F0.34782608695652173
sg6
F0.8260869565217391
ssg7
(dp1625
g4
I01
sg5
F0.2826086956521739
sg6
F1.0
ssg9
(dp1626
g4
I00
sg5
F0.7934782608695652
sg6
F0.9891304347826086
ssg11
(dp1627
g4
I00
sg5
F0.11956521739130435
sg6
F0.6195652173913043
ssg13
(dp1628
g4
I01
sg5
F0.09782608695652174
sg6
F1.0
ssa(dp1629
g2
(dp1630
g4
I00
sg5
F0.34408602150537637
sg6
F0.8387096774193549
ssg7
(dp1631
g4
I01
sg5
F0.26881720430107525
sg6
F1.0
ssg9
(dp1632
g4
I01
sg5
F0.7956989247311828
sg6
F1.0
ssg11
(dp1633
g4
I00
sg5
F0.13978494623655913
sg6
F0.6774193548387097
ssg13
(dp1634
g4
I01
sg5
F0.0967741935483871
sg6
F1.0
ssa(dp1635
g2
(dp1636
g4
I00
sg5
F0.3380281690140845
sg6
F0.7746478873239436
ssg7
(dp1637
g4
I01
sg5
F0.3380281690140845
sg6
F1.0
ssg9
(dp1638
g4
I00
sg5
F0.7887323943661971
sg6
F0.9577464788732395
ssg11
(dp1639
g4
I00
sg5
F0.14084507042253522
sg6
F0.3380281690140845
ssg13
(dp1640
g4
I01
sg5
F0.1267605633802817
sg6
F1.0
ssa(dp1641
g2
(dp1642
g4
I00
sg5
F0.34146341463414637
sg6
F0.5121951219512195
ssg7
(dp1643
g4
I01
sg5
F0.4634146341463415
sg6
F1.0
ssg9
(dp1644
g4
I00
sg5
F0.7804878048780488
sg6
F0.926829268292683
ssg11
(dp1645
g4
I00
sg5
F0.34146341463414637
sg6
F0.7804878048780488
ssg13
(dp1646
g4
I01
sg5
F0.2682926829268293
sg6
F1.0
ssa(dp1647
g2
(dp1648
g4
I00
sg5
F0.35
sg6
F0.5
ssg7
(dp1649
g4
I01
sg5
F0.425
sg6
F1.0
ssg9
(dp1650
g4
I00
sg5
F0.8
sg6
F0.975
ssg11
(dp1651
g4
I00
sg5
F0.375
sg6
F0.825
ssg13
(dp1652
g4
I01
sg5
F0.275
sg6
F1.0
ssa(dp1653
g2
(dp1654
g4
I00
sg5
F0.34375
sg6
F0.84375
ssg7
(dp1655
g4
I01
sg5
F0.28125
sg6
F1.0
ssg9
(dp1656
g4
I00
sg5
F0.7916666666666666
sg6
F0.9791666666666666
ssg11
(dp1657
g4
I00
sg5
F0.13541666666666666
sg6
F0.6041666666666667
ssg13
(dp1658
g4
I01
sg5
F0.09375
sg6
F1.0
ssa(dp1659
g2
(dp1660
g4
I00
sg5
F0.3392857142857143
sg6
F0.6607142857142857
ssg7
(dp1661
g4
I00
sg5
F0.35714285714285715
sg6
F0.9821428571428571
ssg9
(dp1662
g4
I00
sg5
F0.7857142857142857
sg6
F0.9464285714285714
ssg11
(dp1663
g4
I00
sg5
F0.17857142857142858
sg6
F0.3571428571428571
ssg13
(dp1664
g4
I01
sg5
F0.19642857142857142
sg6
F1.0
ssa(dp1665
g2
(dp1666
g4
I00
sg5
F0.345679012345679
sg6
F0.8395061728395061
ssg7
(dp1667
g4
I01
sg5
F0.30864197530864196
sg6
F1.0
ssg9
(dp1668
g4
I01
sg5
F0.7901234567901234
sg6
F1.0
ssg11
(dp1669
g4
I00
sg5
F0.14814814814814814
sg6
F0.4320987654320988
ssg13
(dp1670
g4
I01
sg5
F0.12345679012345678
sg6
F1.0
ssa(dp1671
g2
(dp1672
g4
I00
sg5
F0.3333333333333333
sg6
F0.5
ssg7
(dp1673
g4
I00
sg5
F0.43333333333333335
sg6
F0.9333333333333333
ssg9
(dp1674
g4
I00
sg5
F0.8
sg6
F0.8333333333333334
ssg11
(dp1675
g4
I00
sg5
F0.4
sg6
F0.7333333333333334
ssg13
(dp1676
g4
I01
sg5
F0.43333333333333335
sg6
F1.0
ssa(dp1677
g2
(dp1678
g4
I00
sg5
F0.34782608695652173
sg6
F0.6304347826086957
ssg7
(dp1679
g4
I00
sg5
F0.3695652173913043
sg6
F0.9130434782608696
ssg9
(dp1680
g4
I00
sg5
F0.782608695652174
sg6
F0.9565217391304348
ssg11
(dp1681
g4
I00
sg5
F0.2826086956521739
sg6
F0.6086956521739131
ssg13
(dp1682
g4
I01
sg5
F0.30434782608695654
sg6
F1.0
ssa(dp1683
g2
(dp1684
g4
I00
sg5
F0.3484848484848485
sg6
F0.8333333333333334
ssg7
(dp1685
g4
I01
sg5
F0.3181818181818182
sg6
F1.0
ssg9
(dp1686
g4
I00
sg5
F0.7878787878787878
sg6
F0.9848484848484849
ssg11
(dp1687
g4
I00
sg5
F0.19696969696969696
sg6
F0.6515151515151515
ssg13
(dp1688
g4
I01
sg5
F0.15151515151515152
sg6
F1.0
ssa(dp1689
g2
(dp1690
g4
I00
sg5
F0.3488372093023256
sg6
F0.5581395348837209
ssg7
(dp1691
g4
I00
sg5
F0.37209302325581395
sg6
F0.9534883720930233
ssg9
(dp1692
g4
I00
sg5
F0.7906976744186046
sg6
F0.9767441860465116
ssg11
(dp1693
g4
I00
sg5
F0.32558139534883723
sg6
F0.6744186046511628
ssg13
(dp1694
g4
I01
sg5
F0.2558139534883721
sg6
F1.0
ssa(dp1695
g2
(dp1696
g4
I00
sg5
F0.34285714285714286
sg6
F0.7
ssg7
(dp1697
g4
I01
sg5
F0.3142857142857143
sg6
F1.0
ssg9
(dp1698
g4
I00
sg5
F0.8
sg6
F0.9714285714285714
ssg11
(dp1699
g4
I00
sg5
F0.17142857142857143
sg6
F0.5
ssg13
(dp1700
g4
I01
sg5
F0.14285714285714285
sg6
F1.0
ssa(dp1701
g2
(dp1702
g4
I00
sg5
F0.3492063492063492
sg6
F0.6349206349206349
ssg7
(dp1703
g4
I01
sg5
F0.36507936507936506
sg6
F1.0
ssg9
(dp1704
g4
I00
sg5
F0.7936507936507936
sg6
F0.9682539682539683
ssg11
(dp1705
g4
I00
sg5
F0.2222222222222222
sg6
F0.6507936507936508
ssg13
(dp1706
g4
I01
sg5
F0.14285714285714285
sg6
F1.0
ssa(dp1707
g2
(dp1708
g4
I00
sg5
F0.34146341463414637
sg6
F0.7560975609756098
ssg7
(dp1709
g4
I01
sg5
F0.34146341463414637
sg6
F1.0
ssg9
(dp1710
g4
I00
sg5
F0.7804878048780488
sg6
F0.975609756097561
ssg11
(dp1711
g4
I00
sg5
F0.21951219512195122
sg6
F0.4390243902439024
ssg13
(dp1712
g4
I01
sg5
F0.24390243902439024
sg6
F1.0
ssa(dp1713
g2
(dp1714
g4
I00
sg5
F0.3469387755102041
sg6
F0.6938775510204082
ssg7
(dp1715
g4
I01
sg5
F0.40816326530612246
sg6
F1.0
ssg9
(dp1716
g4
I00
sg5
F0.7959183673469388
sg6
F0.9387755102040817
ssg11
(dp1717
g4
I00
sg5
F0.30612244897959184
sg6
F0.8163265306122449
ssg13
(dp1718
g4
I01
sg5
F0.1836734693877551
sg6
F1.0
ssa(dp1719
g2
(dp1720
g4
I00
sg5
F0.3473684210526316
sg6
F0.8105263157894737
ssg7
(dp1721
g4
I01
sg5
F0.29473684210526313
sg6
F1.0
ssg9
(dp1722
g4
I01
sg5
F0.8
sg6
F1.0
ssg11
(dp1723
g4
I00
sg5
F0.12631578947368421
sg6
F0.631578947368421
ssg13
(dp1724
g4
I01
sg5
F0.09473684210526316
sg6
F1.0
ssa(dp1725
g2
(dp1726
g4
I00
sg5
F0.3333333333333333
sg6
F0.6842105263157895
ssg7
(dp1727
g4
I01
sg5
F0.3157894736842105
sg6
F1.0
ssg9
(dp1728
g4
I00
sg5
F0.7894736842105263
sg6
F0.9824561403508771
ssg11
(dp1729
g4
I00
sg5
F0.22807017543859648
sg6
F0.5789473684210527
ssg13
(dp1730
g4
I01
sg5
F0.19298245614035087
sg6
F1.0
ssa(dp1731
g2
(dp1732
g4
I00
sg5
F0.34782608695652173
sg6
F0.8260869565217391
ssg7
(dp1733
g4
I01
sg5
F0.3188405797101449
sg6
F1.0
ssg9
(dp1734
g4
I01
sg5
F0.7971014492753623
sg6
F1.0
ssg11
(dp1735
g4
I00
sg5
F0.2028985507246377
sg6
F0.6376811594202898
ssg13
(dp1736
g4
I01
sg5
F0.14492753623188406
sg6
F1.0
ssa(dp1737
g2
(dp1738
g4
I00
sg5
F0.3448275862068966
sg6
F0.6896551724137931
ssg7
(dp1739
g4
I01
sg5
F0.3448275862068966
sg6
F1.0
ssg9
(dp1740
g4
I00
sg5
F0.7931034482758621
sg6
F0.9310344827586207
ssg11
(dp1741
g4
I00
sg5
F0.27586206896551724
sg6
F0.6379310344827587
ssg13
(dp1742
g4
I01
sg5
F0.15517241379310345
sg6
F1.0
ssa(dp1743
g2
(dp1744
g4
I01
sg5
F0.3402061855670103
sg6
F1.0
ssg7
(dp1745
g4
I01
sg5
F0.26804123711340205
sg6
F1.0
ssg9
(dp1746
g4
I01
sg5
F0.7938144329896907
sg6
F1.0
ssg11
(dp1747
g4
I00
sg5
F0.08247422680412371
sg6
F0.4226804123711341
ssg13
(dp1748
g4
I01
sg5
F0.09278350515463918
sg6
F1.0
ssa(dp1749
g2
(dp1750
g4
I00
sg5
F0.35
sg6
F0.675
ssg7
(dp1751
g4
I00
sg5
F0.4
sg6
F0.975
ssg9
(dp1752
g4
I00
sg5
F0.8
sg6
F0.925
ssg11
(dp1753
g4
I00
sg5
F0.25
sg6
F0.525
ssg13
(dp1754
g4
I01
sg5
F0.3
sg6
F1.0
ssa(dp1755
g2
(dp1756
g4
I00
sg5
F0.34615384615384615
sg6
F0.8076923076923077
ssg7
(dp1757
g4
I01
sg5
F0.2948717948717949
sg6
F1.0
ssg9
(dp1758
g4
I00
sg5
F0.7948717948717948
sg6
F0.9615384615384616
ssg11
(dp1759
g4
I00
sg5
F0.15384615384615385
sg6
F0.5897435897435898
ssg13
(dp1760
g4
I01
sg5
F0.11538461538461539
sg6
F1.0
ssa(dp1761
g2
(dp1762
g4
I00
sg5
F0.35
sg6
F0.6833333333333333
ssg7
(dp1763
g4
I01
sg5
F0.31666666666666665
sg6
F1.0
ssg9
(dp1764
g4
I00
sg5
F0.8
sg6
F0.9833333333333333
ssg11
(dp1765
g4
I00
sg5
F0.2
sg6
F0.5833333333333333
ssg13
(dp1766
g4
I01
sg5
F0.18333333333333332
sg6
F1.0
ssa(dp1767
g2
(dp1768
g4
I00
sg5
F0.34444444444444444
sg6
F0.7555555555555555
ssg7
(dp1769
g4
I01
sg5
F0.2777777777777778
sg6
F1.0
ssg9
(dp1770
g4
I01
sg5
F0.8
sg6
F1.0
ssg11
(dp1771
g4
I00
sg5
F0.15555555555555556
sg6
F0.5555555555555556
ssg13
(dp1772
g4
I01
sg5
F0.1
sg6
F1.0
ssa(dp1773
g2
(dp1774
g4
I00
sg5
F0.3466666666666667
sg6
F0.7866666666666666
ssg7
(dp1775
g4
I01
sg5
F0.30666666666666664
sg6
F1.0
ssg9
(dp1776
g4
I00
sg5
F0.8
sg6
F0.9733333333333334
ssg11
(dp1777
g4
I00
sg5
F0.17333333333333334
sg6
F0.5333333333333333
ssg13
(dp1778
g4
I01
sg5
F0.14666666666666667
sg6
F1.0
ssa(dp1779
g2
(dp1780
g4
I00
sg5
F0.34782608695652173
sg6
F0.7971014492753623
ssg7
(dp1781
g4
I01
sg5
F0.3333333333333333
sg6
F1.0
ssg9
(dp1782
g4
I00
sg5
F0.7971014492753623
sg6
F0.9710144927536232
ssg11
(dp1783
g4
I00
sg5
F0.21739130434782608
sg6
F0.6956521739130435
ssg13
(dp1784
g4
I01
sg5
F0.14492753623188406
sg6
F1.0
ssa(dp1785
g2
(dp1786
g4
I00
sg5
F0.3392857142857143
sg6
F0.5714285714285714
ssg7
(dp1787
g4
I01
sg5
F0.32142857142857145
sg6
F1.0
ssg9
(dp1788
g4
I00
sg5
F0.7857142857142857
sg6
F0.9464285714285714
ssg11
(dp1789
g4
I00
sg5
F0.23214285714285715
sg6
F0.6607142857142857
ssg13
(dp1790
g4
I01
sg5
F0.17857142857142858
sg6
F1.0
ssa(dp1791
g2
(dp1792
g4
I00
sg5
F0.33783783783783783
sg6
F0.6891891891891893
ssg7
(dp1793
g4
I01
sg5
F0.2972972972972973
sg6
F1.0
ssg9
(dp1794
g4
I00
sg5
F0.7972972972972973
sg6
F0.972972972972973
ssg11
(dp1795
g4
I00
sg5
F0.17567567567567569
sg6
F0.4054054054054054
ssg13
(dp1796
g4
I01
sg5
F0.12162162162162163
sg6
F1.0
ssa(dp1797
g2
(dp1798
g4
I00
sg5
F0.3411764705882353
sg6
F0.8588235294117648
ssg7
(dp1799
g4
I01
sg5
F0.3176470588235294
sg6
F1.0
ssg9
(dp1800
g4
I01
sg5
F0.8
sg6
F1.0
ssg11
(dp1801
g4
I00
sg5
F0.17647058823529413
sg6
F0.788235294117647
ssg13
(dp1802
g4
I01
sg5
F0.10588235294117647
sg6
F1.0
ssa(dp1803
g2
(dp1804
g4
I00
sg5
F0.35
sg6
F0.525
ssg7
(dp1805
g4
I01
sg5
F0.375
sg6
F1.0
ssg9
(dp1806
g4
I01
sg5
F0.8
sg6
F1.0
ssg11
(dp1807
g4
I00
sg5
F0.35
sg6
F0.6
ssg13
(dp1808
g4
I01
sg5
F0.275
sg6
F1.0
ssa(dp1809
g2
(dp1810
g4
I00
sg5
F0.3488372093023256
sg6
F0.7674418604651163
ssg7
(dp1811
g4
I01
sg5
F0.26744186046511625
sg6
F1.0
ssg9
(dp1812
g4
I00
sg5
F0.7906976744186046
sg6
F0.9534883720930233
ssg11
(dp1813
g4
I00
sg5
F0.13953488372093023
sg6
F0.5813953488372092
ssg13
(dp1814
g4
I01
sg5
F0.11627906976744186
sg6
F1.0
ssa(dp1815
g2
(dp1816
g4
I00
sg5
F0.3389830508474576
sg6
F0.6101694915254237
ssg7
(dp1817
g4
I01
sg5
F0.3559322033898305
sg6
F1.0
ssg9
(dp1818
g4
I00
sg5
F0.7966101694915254
sg6
F0.9322033898305084
ssg11
(dp1819
g4
I00
sg5
F0.1864406779661017
sg6
F0.4915254237288136
ssg13
(dp1820
g4
I01
sg5
F0.1864406779661017
sg6
F1.0
ssa(dp1821
g2
(dp1822
g4
I00
sg5
F0.3492063492063492
sg6
F0.6031746031746033
ssg7
(dp1823
g4
I01
sg5
F0.36507936507936506
sg6
F1.0
ssg9
(dp1824
g4
I00
sg5
F0.7936507936507936
sg6
F0.9206349206349207
ssg11
(dp1825
g4
I00
sg5
F0.23809523809523808
sg6
F0.7777777777777778
ssg13
(dp1826
g4
I01
sg5
F0.14285714285714285
sg6
F1.0
ssa(dp1827
g2
(dp1828
g4
I00
sg5
F0.3469387755102041
sg6
F0.8163265306122449
ssg7
(dp1829
g4
I01
sg5
F0.2755102040816326
sg6
F1.0
ssg9
(dp1830
g4
I00
sg5
F0.7959183673469388
sg6
F0.9795918367346939
ssg11
(dp1831
g4
I00
sg5
F0.19387755102040816
sg6
F0.7959183673469388
ssg13
(dp1832
g4
I01
sg5
F0.09183673469387756
sg6
F1.0
ssa(dp1833
g2
(dp1834
g4
I00
sg5
F0.34782608695652173
sg6
F0.7391304347826086
ssg7
(dp1835
g4
I01
sg5
F0.30434782608695654
sg6
F1.0
ssg9
(dp1836
g4
I00
sg5
F0.7971014492753623
sg6
F0.9855072463768116
ssg11
(dp1837
g4
I00
sg5
F0.17391304347826086
sg6
F0.37681159420289856
ssg13
(dp1838
g4
I01
sg5
F0.13043478260869565
sg6
F1.0
ssa(dp1839
g2
(dp1840
g4
I00
sg5
F0.3225806451612903
sg6
F0.5483870967741935
ssg7
(dp1841
g4
I00
sg5
F0.5483870967741935
sg6
F0.9032258064516129
ssg9
(dp1842
g4
I00
sg5
F0.7741935483870968
sg6
F0.967741935483871
ssg11
(dp1843
g4
I00
sg5
F0.22580645161290322
sg6
F0.4193548387096774
ssg13
(dp1844
g4
I01
sg5
F0.3870967741935484
sg6
F1.0
ssa(dp1845
g2
(dp1846
g4
I00
sg5
F0.3492063492063492
sg6
F0.7619047619047619
ssg7
(dp1847
g4
I01
sg5
F0.3333333333333333
sg6
F1.0
ssg9
(dp1848
g4
I00
sg5
F0.7936507936507936
sg6
F0.9682539682539683
ssg11
(dp1849
g4
I00
sg5
F0.20634920634920634
sg6
F0.5396825396825398
ssg13
(dp1850
g4
I01
sg5
F0.15873015873015872
sg6
F1.0
ssa(dp1851
g2
(dp1852
g4
I00
sg5
F0.34328358208955223
sg6
F0.7462686567164178
ssg7
(dp1853
g4
I01
sg5
F0.34328358208955223
sg6
F1.0
ssg9
(dp1854
g4
I00
sg5
F0.7910447761194029
sg6
F0.9850746268656716
ssg11
(dp1855
g4
I00
sg5
F0.208955223880597
sg6
F0.7611940298507462
ssg13
(dp1856
g4
I01
sg5
F0.13432835820895522
sg6
F1.0
ssa(dp1857
g2
(dp1858
g4
I00
sg5
F0.35
sg6
F0.5875
ssg7
(dp1859
g4
I01
sg5
F0.3125
sg6
F1.0
ssg9
(dp1860
g4
I01
sg5
F0.8
sg6
F1.0
ssg11
(dp1861
g4
I00
sg5
F0.1
sg6
F0.35
ssg13
(dp1862
g4
I01
sg5
F0.1125
sg6
F1.0
ssa(dp1863
g2
(dp1864
g4
I00
sg5
F0.34444444444444444
sg6
F0.8666666666666667
ssg7
(dp1865
g4
I01
sg5
F0.28888888888888886
sg6
F1.0
ssg9
(dp1866
g4
I00
sg5
F0.8
sg6
F0.9777777777777777
ssg11
(dp1867
g4
I00
sg5
F0.13333333333333333
sg6
F0.5222222222222221
ssg13
(dp1868
g4
I01
sg5
F0.1
sg6
F1.0
ssa(dp1869
g2
(dp1870
g4
I00
sg5
F0.34408602150537637
sg6
F0.7204301075268817
ssg7
(dp1871
g4
I01
sg5
F0.27956989247311825
sg6
F1.0
ssg9
(dp1872
g4
I01
sg5
F0.7956989247311828
sg6
F1.0
ssg11
(dp1873
g4
I00
sg5
F0.16129032258064516
sg6
F0.5913978494623655
ssg13
(dp1874
g4
I01
sg5
F0.0967741935483871
sg6
F1.0
ssa(dp1875
g2
(dp1876
g4
I00
sg5
F0.3404255319148936
sg6
F0.6170212765957447
ssg7
(dp1877
g4
I01
sg5
F0.40425531914893614
sg6
F1.0
ssg9
(dp1878
g4
I01
sg5
F0.7872340425531915
sg6
F1.0
ssg11
(dp1879
g4
I00
sg5
F0.2765957446808511
sg6
F0.7872340425531915
ssg13
(dp1880
g4
I01
sg5
F0.19148936170212766
sg6
F1.0
ssa(dp1881
g2
(dp1882
g4
I00
sg5
F0.3235294117647059
sg6
F0.4411764705882353
ssg7
(dp1883
g4
I01
sg5
F0.47058823529411764
sg6
F1.0
ssg9
(dp1884
g4
I00
sg5
F0.7941176470588235
sg6
F0.9411764705882353
ssg11
(dp1885
g4
I00
sg5
F0.23529411764705882
sg6
F0.5588235294117647
ssg13
(dp1886
g4
I01
sg5
F0.29411764705882354
sg6
F1.0
ssa(dp1887
g2
(dp1888
g4
I00
sg5
F0.3472222222222222
sg6
F0.6944444444444444
ssg7
(dp1889
g4
I00
sg5
F0.25
sg6
F0.9861111111111112
ssg9
(dp1890
g4
I00
sg5
F0.7916666666666666
sg6
F0.9722222222222222
ssg11
(dp1891
g4
I00
sg5
F0.1527777777777778
sg6
F0.4444444444444444
ssg13
(dp1892
g4
I01
sg5
F0.1388888888888889
sg6
F1.0
ssa(dp1893
g2
(dp1894
g4
I00
sg5
F0.3409090909090909
sg6
F0.8181818181818181
ssg7
(dp1895
g4
I01
sg5
F0.26136363636363635
sg6
F1.0
ssg9
(dp1896
g4
I01
sg5
F0.7954545454545454
sg6
F1.0
ssg11
(dp1897
g4
I00
sg5
F0.13636363636363635
sg6
F0.4545454545454546
ssg13
(dp1898
g4
I01
sg5
F0.10227272727272728
sg6
F1.0
ssa(dp1899
g2
(dp1900
g4
I00
sg5
F0.3225806451612903
sg6
F0.4193548387096774
ssg7
(dp1901
g4
I00
sg5
F0.5161290322580645
sg6
F0.935483870967742
ssg9
(dp1902
g4
I00
sg5
F0.7741935483870968
sg6
F0.8387096774193549
ssg11
(dp1903
g4
I00
sg5
F0.41935483870967744
sg6
F0.6774193548387097
ssg13
(dp1904
g4
I01
sg5
F0.45161290322580644
sg6
F1.0
ssa(dp1905
g2
(dp1906
g4
I00
sg5
F0.3225806451612903
sg6
F0.4838709677419355
ssg7
(dp1907
g4
I00
sg5
F0.41935483870967744
sg6
F0.935483870967742
ssg9
(dp1908
g4
I00
sg5
F0.7741935483870968
sg6
F0.8709677419354839
ssg11
(dp1909
g4
I00
sg5
F0.3548387096774194
sg6
F0.7419354838709677
ssg13
(dp1910
g4
I01
sg5
F0.3870967741935484
sg6
F1.0
ssa(dp1911
g2
(dp1912
g4
I00
sg5
F0.3404255319148936
sg6
F0.8723404255319149
ssg7
(dp1913
g4
I01
sg5
F0.26595744680851063
sg6
F1.0
ssg9
(dp1914
g4
I01
sg5
F0.7978723404255319
sg6
F1.0
ssg11
(dp1915
g4
I00
sg5
F0.1276595744680851
sg6
F0.6063829787234043
ssg13
(dp1916
g4
I01
sg5
F0.10638297872340426
sg6
F1.0
ssa(dp1917
g2
(dp1918
g4
I00
sg5
F0.32432432432432434
sg6
F0.5675675675675675
ssg7
(dp1919
g4
I01
sg5
F0.4594594594594595
sg6
F1.0
ssg9
(dp1920
g4
I00
sg5
F0.7837837837837838
sg6
F0.9459459459459459
ssg11
(dp1921
g4
I00
sg5
F0.2702702702702703
sg6
F0.5675675675675675
ssg13
(dp1922
g4
I01
sg5
F0.2972972972972973
sg6
F1.0
ssa(dp1923
g2
(dp1924
g4
I00
sg5
F0.3409090909090909
sg6
F0.7613636363636364
ssg7
(dp1925
g4
I01
sg5
F0.2840909090909091
sg6
F1.0
ssg9
(dp1926
g4
I00
sg5
F0.7954545454545454
sg6
F0.9659090909090909
ssg11
(dp1927
g4
I00
sg5
F0.17045454545454544
sg6
F0.6590909090909092
ssg13
(dp1928
g4
I01
sg5
F0.10227272727272728
sg6
F1.0
ssa(dp1929
g2
(dp1930
g4
I00
sg5
F0.34210526315789475
sg6
F0.7763157894736842
ssg7
(dp1931
g4
I01
sg5
F0.3157894736842105
sg6
F1.0
ssg9
(dp1932
g4
I00
sg5
F0.7894736842105263
sg6
F0.9210526315789473
ssg11
(dp1933
g4
I00
sg5
F0.18421052631578946
sg6
F0.5526315789473684
ssg13
(dp1934
g4
I01
sg5
F0.11842105263157894
sg6
F1.0
ssa(dp1935
g2
(dp1936
g4
I00
sg5
F0.3424657534246575
sg6
F0.7397260273972603
ssg7
(dp1937
g4
I01
sg5
F0.2876712328767123
sg6
F1.0
ssg9
(dp1938
g4
I00
sg5
F0.7945205479452054
sg6
F0.9726027397260274
ssg11
(dp1939
g4
I00
sg5
F0.1780821917808219
sg6
F0.5068493150684932
ssg13
(dp1940
g4
I01
sg5
F0.1232876712328767
sg6
F1.0
ssa(dp1941
g2
(dp1942
g4
I00
sg5
F0.3488372093023256
sg6
F0.8023255813953488
ssg7
(dp1943
g4
I01
sg5
F0.27906976744186046
sg6
F1.0
ssg9
(dp1944
g4
I00
sg5
F0.7906976744186046
sg6
F0.9883720930232558
ssg11
(dp1945
g4
I00
sg5
F0.16279069767441862
sg6
F0.4883720930232558
ssg13
(dp1946
g4
I01
sg5
F0.10465116279069768
sg6
F1.0
ssa(dp1947
g2
(dp1948
g4
I00
sg5
F0.3387096774193548
sg6
F0.6451612903225806
ssg7
(dp1949
g4
I01
sg5
F0.3225806451612903
sg6
F1.0
ssg9
(dp1950
g4
I00
sg5
F0.7903225806451613
sg6
F0.9838709677419355
ssg11
(dp1951
g4
I00
sg5
F0.22580645161290322
sg6
F0.6129032258064516
ssg13
(dp1952
g4
I01
sg5
F0.16129032258064516
sg6
F1.0
ssa(dp1953
g2
(dp1954
g4
I00
sg5
F0.34444444444444444
sg6
F0.7666666666666666
ssg7
(dp1955
g4
I01
sg5
F0.2777777777777778
sg6
F1.0
ssg9
(dp1956
g4
I01
sg5
F0.8
sg6
F1.0
ssg11
(dp1957
g4
I00
sg5
F0.13333333333333333
sg6
F0.3555555555555555
ssg13
(dp1958
g4
I01
sg5
F0.1
sg6
F1.0
ssa(dp1959
g2
(dp1960
g4
I00
sg5
F0.32432432432432434
sg6
F0.9189189189189189
ssg7
(dp1961
g4
I01
sg5
F0.5135135135135135
sg6
F1.0
ssg9
(dp1962
g4
I00
sg5
F0.7837837837837838
sg6
F0.972972972972973
ssg11
(dp1963
g4
I00
sg5
F0.16216216216216217
sg6
F0.43243243243243246
ssg13
(dp1964
g4
I01
sg5
F0.24324324324324326
sg6
F1.0
ssa(dp1965
g2
(dp1966
g4
I00
sg5
F0.3466666666666667
sg6
F0.72
ssg7
(dp1967
g4
I01
sg5
F0.32
sg6
F1.0
ssg9
(dp1968
g4
I00
sg5
F0.8
sg6
F0.9733333333333334
ssg11
(dp1969
g4
I00
sg5
F0.13333333333333333
sg6
F0.48
ssg13
(dp1970
g4
I01
sg5
F0.13333333333333333
sg6
F1.0
ssa(dp1971
g2
(dp1972
g4
I00
sg5
F0.3473684210526316
sg6
F0.7684210526315789
ssg7
(dp1973
g4
I01
sg5
F0.23157894736842105
sg6
F1.0
ssg9
(dp1974
g4
I01
sg5
F0.8
sg6
F1.0
ssg11
(dp1975
g4
I00
sg5
F0.16842105263157894
sg6
F0.5789473684210527
ssg13
(dp1976
g4
I01
sg5
F0.09473684210526316
sg6
F1.0
ssa(dp1977
g2
(dp1978
g4
I00
sg5
F0.3434343434343434
sg6
F0.8585858585858586
ssg7
(dp1979
g4
I01
sg5
F0.2828282828282828
sg6
F1.0
ssg9
(dp1980
g4
I00
sg5
F0.797979797979798
sg6
F0.9797979797979798
ssg11
(dp1981
g4
I00
sg5
F0.1111111111111111
sg6
F0.3535353535353535
ssg13
(dp1982
g4
I01
sg5
F0.09090909090909091
sg6
F1.0
ssa(dp1983
g2
(dp1984
g4
I00
sg5
F0.3333333333333333
sg6
F0.6363636363636364
ssg7
(dp1985
g4
I00
sg5
F0.42424242424242425
sg6
F0.9696969696969697
ssg9
(dp1986
g4
I00
sg5
F0.7878787878787878
sg6
F0.9393939393939394
ssg11
(dp1987
g4
I00
sg5
F0.36363636363636365
sg6
F0.6060606060606061
ssg13
(dp1988
g4
I01
sg5
F0.3333333333333333
sg6
F1.0
ssa(dp1989
g2
(dp1990
g4
I00
sg5
F0.3333333333333333
sg6
F0.5714285714285714
ssg7
(dp1991
g4
I00
sg5
F0.40476190476190477
sg6
F0.9761904761904762
ssg9
(dp1992
g4
I00
sg5
F0.7857142857142857
sg6
F0.9761904761904762
ssg11
(dp1993
g4
I00
sg5
F0.30952380952380953
sg6
F0.6904761904761905
ssg13
(dp1994
g4
I01
sg5
F0.23809523809523808
sg6
F1.0
ssa(dp1995
g2
(dp1996
g4
I00
sg5
F0.3389830508474576
sg6
F0.7796610169491526
ssg7
(dp1997
g4
I01
sg5
F0.3728813559322034
sg6
F1.0
ssg9
(dp1998
g4
I00
sg5
F0.7966101694915254
sg6
F0.9661016949152542
ssg11
(dp1999
g4
I00
sg5
F0.2033898305084746
sg6
F0.5593220338983051
ssg13
(dp2000
g4
I01
sg5
F0.15254237288135594
sg6
F1.0
ssa(dp2001
g2
(dp2002
g4
I00
sg5
F0.3448275862068966
sg6
F0.7816091954022988
ssg7
(dp2003
g4
I01
sg5
F0.28735632183908044
sg6
F1.0
ssg9
(dp2004
g4
I00
sg5
F0.7931034482758621
sg6
F0.9885057471264368
ssg11
(dp2005
g4
I00
sg5
F0.12643678160919541
sg6
F0.45977011494252873
ssg13
(dp2006
g4
I01
sg5
F0.10344827586206896
sg6
F1.0
ssa(dp2007
g2
(dp2008
g4
I00
sg5
F0.35
sg6
F0.7625
ssg7
(dp2009
g4
I01
sg5
F0.3
sg6
F1.0
ssg9
(dp2010
g4
I01
sg5
F0.8
sg6
F1.0
ssg11
(dp2011
g4
I00
sg5
F0.175
sg6
F0.525
ssg13
(dp2012
g4
I01
sg5
F0.125
sg6
F1.0
ssa(dp2013
g2
(dp2014
g4
I00
sg5
F0.34782608695652173
sg6
F0.6739130434782609
ssg7
(dp2015
g4
I01
sg5
F0.32608695652173914
sg6
F1.0
ssg9
(dp2016
g4
I00
sg5
F0.7934782608695652
sg6
F0.9782608695652174
ssg11
(dp2017
g4
I00
sg5
F0.09782608695652174
sg6
F0.4565217391304348
ssg13
(dp2018
g4
I01
sg5
F0.09782608695652174
sg6
F1.0
ssa(dp2019
g2
(dp2020
g4
I00
sg5
F0.3484848484848485
sg6
F0.6212121212121212
ssg7
(dp2021
g4
I01
sg5
F0.30303030303030304
sg6
F1.0
ssg9
(dp2022
g4
I00
sg5
F0.7878787878787878
sg6
F0.9242424242424242
ssg11
(dp2023
g4
I00
sg5
F0.21212121212121213
sg6
F0.6060606060606061
ssg13
(dp2024
g4
I01
sg5
F0.13636363636363635
sg6
F1.0
ssa(dp2025
g2
(dp2026
g4
I00
sg5
F0.3225806451612903
sg6
F0.5806451612903225
ssg7
(dp2027
g4
I00
sg5
F0.41935483870967744
sg6
F0.9032258064516129
ssg9
(dp2028
g4
I00
sg5
F0.7741935483870968
sg6
F0.967741935483871
ssg11
(dp2029
g4
I00
sg5
F0.3225806451612903
sg6
F0.6129032258064516
ssg13
(dp2030
g4
I01
sg5
F0.41935483870967744
sg6
F1.0
ssa(dp2031
g2
(dp2032
g4
I00
sg5
F0.34177215189873417
sg6
F0.6962025316455696
ssg7
(dp2033
g4
I01
sg5
F0.2911392405063291
sg6
F1.0
ssg9
(dp2034
g4
I00
sg5
F0.7974683544303798
sg6
F0.9493670886075949
ssg11
(dp2035
g4
I00
sg5
F0.10126582278481013
sg6
F0.3417721518987342
ssg13
(dp2036
g4
I01
sg5
F0.11392405063291139
sg6
F1.0
ssa(dp2037
g2
(dp2038
g4
I00
sg5
F0.3382352941176471
sg6
F0.7205882352941176
ssg7
(dp2039
g4
I01
sg5
F0.36764705882352944
sg6
F1.0
ssg9
(dp2040
g4
I00
sg5
F0.7941176470588235
sg6
F0.9558823529411765
ssg11
(dp2041
g4
I00
sg5
F0.14705882352941177
sg6
F0.5588235294117647
ssg13
(dp2042
g4
I01
sg5
F0.1323529411764706
sg6
F1.0
ssa(dp2043
g2
(dp2044
g4
I00
sg5
F0.3402061855670103
sg6
F0.8865979381443299
ssg7
(dp2045
g4
I01
sg5
F0.25773195876288657
sg6
F1.0
ssg9
(dp2046
g4
I01
sg5
F0.7938144329896907
sg6
F1.0
ssg11
(dp2047
g4
I00
sg5
F0.10309278350515463
sg6
F0.4639175257731959
ssg13
(dp2048
g4
I01
sg5
F0.09278350515463918
sg6
F1.0
ssa(dp2049
g2
(dp2050
g4
I00
sg5
F0.3492063492063492
sg6
F0.7142857142857143
ssg7
(dp2051
g4
I01
sg5
F0.31746031746031744
sg6
F1.0
ssg9
(dp2052
g4
I00
sg5
F0.7936507936507936
sg6
F0.9523809523809523
ssg11
(dp2053
g4
I00
sg5
F0.20634920634920634
sg6
F0.5873015873015873
ssg13
(dp2054
g4
I01
sg5
F0.15873015873015872
sg6
F1.0
ssa(dp2055
g2
(dp2056
g4
I00
sg5
F0.3382352941176471
sg6
F0.75
ssg7
(dp2057
g4
I01
sg5
F0.36764705882352944
sg6
F1.0
ssg9
(dp2058
g4
I00
sg5
F0.7941176470588235
sg6
F0.9852941176470589
ssg11
(dp2059
g4
I00
sg5
F0.14705882352941177
sg6
F0.5
ssg13
(dp2060
g4
I01
sg5
F0.1323529411764706
sg6
F1.0
ssa(dp2061
g2
(dp2062
g4
I00
sg5
F0.34177215189873417
sg6
F0.620253164556962
ssg7
(dp2063
g4
I01
sg5
F0.2911392405063291
sg6
F1.0
ssg9
(dp2064
g4
I00
sg5
F0.7974683544303798
sg6
F0.9873417721518988
ssg11
(dp2065
g4
I00
sg5
F0.1518987341772152
sg6
F0.430379746835443
ssg13
(dp2066
g4
I01
sg5
F0.12658227848101267
sg6
F1.0
ssa(dp2067
g2
(dp2068
g4
I00
sg5
F0.3434343434343434
sg6
F0.7777777777777778
ssg7
(dp2069
g4
I01
sg5
F0.31313131313131315
sg6
F1.0
ssg9
(dp2070
g4
I00
sg5
F0.797979797979798
sg6
F0.9797979797979798
ssg11
(dp2071
g4
I00
sg5
F0.13131313131313133
sg6
F0.505050505050505
ssg13
(dp2072
g4
I01
sg5
F0.09090909090909091
sg6
F1.0
ssa(dp2073
g2
(dp2074
g4
I00
sg5
F0.3387096774193548
sg6
F0.6935483870967742
ssg7
(dp2075
g4
I01
sg5
F0.3064516129032258
sg6
F1.0
ssg9
(dp2076
g4
I00
sg5
F0.7903225806451613
sg6
F0.9516129032258065
ssg11
(dp2077
g4
I00
sg5
F0.1935483870967742
sg6
F0.3548387096774194
ssg13
(dp2078
g4
I01
sg5
F0.1774193548387097
sg6
F1.0
ssa(dp2079
g2
(dp2080
g4
I00
sg5
F0.3488372093023256
sg6
F0.4883720930232558
ssg7
(dp2081
g4
I01
sg5
F0.3953488372093023
sg6
F1.0
ssg9
(dp2082
g4
I00
sg5
F0.7906976744186046
sg6
F0.9534883720930233
ssg11
(dp2083
g4
I00
sg5
F0.3023255813953488
sg6
F0.6046511627906976
ssg13
(dp2084
g4
I01
sg5
F0.20930232558139536
sg6
F1.0
ssa(dp2085
g2
(dp2086
g4
I00
sg5
F0.34444444444444444
sg6
F0.7777777777777778
ssg7
(dp2087
g4
I01
sg5
F0.25555555555555554
sg6
F1.0
ssg9
(dp2088
g4
I00
sg5
F0.8
sg6
F0.9888888888888889
ssg11
(dp2089
g4
I00
sg5
F0.16666666666666666
sg6
F0.7444444444444445
ssg13
(dp2090
g4
I01
sg5
F0.1
sg6
F1.0
ssa(dp2091
g2
(dp2092
g4
I00
sg5
F0.3404255319148936
sg6
F0.6808510638297872
ssg7
(dp2093
g4
I01
sg5
F0.48936170212765956
sg6
F1.0
ssg9
(dp2094
g4
I00
sg5
F0.7872340425531915
sg6
F0.9361702127659575
ssg11
(dp2095
g4
I00
sg5
F0.2765957446808511
sg6
F0.574468085106383
ssg13
(dp2096
g4
I01
sg5
F0.2127659574468085
sg6
F1.0
ssa(dp2097
g2
(dp2098
g4
I00
sg5
F0.3424657534246575
sg6
F0.726027397260274
ssg7
(dp2099
g4
I01
sg5
F0.3287671232876712
sg6
F1.0
ssg9
(dp2100
g4
I00
sg5
F0.7945205479452054
sg6
F0.9863013698630136
ssg11
(dp2101
g4
I00
sg5
F0.2191780821917808
sg6
F0.9452054794520548
ssg13
(dp2102
g4
I01
sg5
F0.136986301369863
sg6
F1.0
ssa(dp2103
g2
(dp2104
g4
I00
sg5
F0.345679012345679
sg6
F0.7654320987654322
ssg7
(dp2105
g4
I01
sg5
F0.2962962962962963
sg6
F1.0
ssg9
(dp2106
g4
I01
sg5
F0.7901234567901234
sg6
F1.0
ssg11
(dp2107
g4
I00
sg5
F0.13580246913580246
sg6
F0.41975308641975306
ssg13
(dp2108
g4
I01
sg5
F0.1111111111111111
sg6
F1.0
ssa(dp2109
g2
(dp2110
g4
I00
sg5
F0.3333333333333333
sg6
F0.5
ssg7
(dp2111
g4
I01
sg5
F0.35185185185185186
sg6
F1.0
ssg9
(dp2112
g4
I00
sg5
F0.7962962962962963
sg6
F0.9814814814814815
ssg11
(dp2113
g4
I00
sg5
F0.12962962962962962
sg6
F0.38888888888888884
ssg13
(dp2114
g4
I01
sg5
F0.2037037037037037
sg6
F1.0
ssa(dp2115
g2
(dp2116
g4
I00
sg5
F0.3333333333333333
sg6
F0.5151515151515151
ssg7
(dp2117
g4
I01
sg5
F0.5454545454545454
sg6
F1.0
ssg9
(dp2118
g4
I00
sg5
F0.7878787878787878
sg6
F0.9393939393939394
ssg11
(dp2119
g4
I00
sg5
F0.3939393939393939
sg6
F0.6666666666666667
ssg13
(dp2120
g4
I01
sg5
F0.30303030303030304
sg6
F1.0
ssa(dp2121
g2
(dp2122
g4
I00
sg5
F0.3404255319148936
sg6
F0.8829787234042553
ssg7
(dp2123
g4
I01
sg5
F0.2765957446808511
sg6
F1.0
ssg9
(dp2124
g4
I00
sg5
F0.7978723404255319
sg6
F0.9787234042553191
ssg11
(dp2125
g4
I00
sg5
F0.1276595744680851
sg6
F0.5425531914893618
ssg13
(dp2126
g4
I01
sg5
F0.09574468085106383
sg6
F1.0
ssa(dp2127
g2
(dp2128
g4
I00
sg5
F0.34065934065934067
sg6
F0.8241758241758241
ssg7
(dp2129
g4
I01
sg5
F0.2857142857142857
sg6
F1.0
ssg9
(dp2130
g4
I00
sg5
F0.7912087912087912
sg6
F0.989010989010989
ssg11
(dp2131
g4
I00
sg5
F0.23076923076923078
sg6
F0.8461538461538461
ssg13
(dp2132
g4
I01
sg5
F0.0989010989010989
sg6
F1.0
ssa(dp2133
g2
(dp2134
g4
I00
sg5
F0.33783783783783783
sg6
F0.6891891891891893
ssg7
(dp2135
g4
I01
sg5
F0.3108108108108108
sg6
F1.0
ssg9
(dp2136
g4
I00
sg5
F0.7972972972972973
sg6
F0.9594594594594594
ssg11
(dp2137
g4
I00
sg5
F0.17567567567567569
sg6
F0.472972972972973
ssg13
(dp2138
g4
I01
sg5
F0.12162162162162163
sg6
F1.0
ssa(dp2139
g2
(dp2140
g4
I00
sg5
F0.345679012345679
sg6
F0.8395061728395061
ssg7
(dp2141
g4
I01
sg5
F0.32098765432098764
sg6
F1.0
ssg9
(dp2142
g4
I00
sg5
F0.7901234567901234
sg6
F0.962962962962963
ssg11
(dp2143
g4
I00
sg5
F0.13580246913580246
sg6
F0.4691358024691358
ssg13
(dp2144
g4
I01
sg5
F0.1111111111111111
sg6
F1.0
ssa(dp2145
g2
(dp2146
g4
I00
sg5
F0.3333333333333333
sg6
F0.6
ssg7
(dp2147
g4
I01
sg5
F0.37777777777777777
sg6
F1.0
ssg9
(dp2148
g4
I00
sg5
F0.8
sg6
F0.9555555555555556
ssg11
(dp2149
g4
I00
sg5
F0.17777777777777778
sg6
F0.4444444444444444
ssg13
(dp2150
g4
I01
sg5
F0.2222222222222222
sg6
F1.0
ssa(dp2151
g2
(dp2152
g4
I00
sg5
F0.3469387755102041
sg6
F0.5918367346938775
ssg7
(dp2153
g4
I01
sg5
F0.42857142857142855
sg6
F1.0
ssg9
(dp2154
g4
I00
sg5
F0.7959183673469388
sg6
F0.9591836734693877
ssg11
(dp2155
g4
I00
sg5
F0.1836734693877551
sg6
F0.5306122448979591
ssg13
(dp2156
g4
I01
sg5
F0.1836734693877551
sg6
F1.0
ssa(dp2157
g2
(dp2158
g4
I00
sg5
F0.3333333333333333
sg6
F0.6153846153846154
ssg7
(dp2159
g4
I00
sg5
F0.38461538461538464
sg6
F0.9743589743589743
ssg9
(dp2160
g4
I00
sg5
F0.7948717948717948
sg6
F0.9743589743589743
ssg11
(dp2161
g4
I00
sg5
F0.23076923076923078
sg6
F0.5128205128205128
ssg13
(dp2162
g4
I01
sg5
F0.28205128205128205
sg6
F1.0
ssa(dp2163
g2
(dp2164
g4
I00
sg5
F0.34
sg6
F0.56
ssg7
(dp2165
g4
I01
sg5
F0.44
sg6
F1.0
ssg9
(dp2166
g4
I00
sg5
F0.8
sg6
F0.98
ssg11
(dp2167
g4
I00
sg5
F0.26
sg6
F0.6599999999999999
ssg13
(dp2168
g4
I01
sg5
F0.22
sg6
F1.0
ssa(dp2169
g2
(dp2170
g4
I00
sg5
F0.33962264150943394
sg6
F0.5660377358490566
ssg7
(dp2171
g4
I01
sg5
F0.37735849056603776
sg6
F1.0
ssg9
(dp2172
g4
I00
sg5
F0.7924528301886793
sg6
F0.9433962264150944
ssg11
(dp2173
g4
I00
sg5
F0.24528301886792453
sg6
F0.5283018867924528
ssg13
(dp2174
g4
I01
sg5
F0.20754716981132076
sg6
F1.0
ssa(dp2175
g2
(dp2176
g4
I00
sg5
F0.3448275862068966
sg6
F0.6896551724137931
ssg7
(dp2177
g4
I01
sg5
F0.3448275862068966
sg6
F1.0
ssg9
(dp2178
g4
I00
sg5
F0.7931034482758621
sg6
F0.9827586206896551
ssg11
(dp2179
g4
I00
sg5
F0.3275862068965517
sg6
F0.7931034482758621
ssg13
(dp2180
g4
I01
sg5
F0.1724137931034483
sg6
F1.0
ssa(dp2181
g2
(dp2182
g4
I00
sg5
F0.3488372093023256
sg6
F0.9069767441860466
ssg7
(dp2183
g4
I01
sg5
F0.313953488372093
sg6
F1.0
ssg9
(dp2184
g4
I01
sg5
F0.7906976744186046
sg6
F1.0
ssg11
(dp2185
g4
I00
sg5
F0.1511627906976744
sg6
F0.627906976744186
ssg13
(dp2186
g4
I01
sg5
F0.10465116279069768
sg6
F1.0
ssa(dp2187
g2
(dp2188
g4
I00
sg5
F0.34831460674157305
sg6
F0.8764044943820225
ssg7
(dp2189
g4
I01
sg5
F0.2808988764044944
sg6
F1.0
ssg9
(dp2190
g4
I00
sg5
F0.797752808988764
sg6
F0.9775280898876404
ssg11
(dp2191
g4
I00
sg5
F0.12359550561797752
sg6
F0.6404494382022472
ssg13
(dp2192
g4
I01
sg5
F0.10112359550561797
sg6
F1.0
ssa(dp2193
g2
(dp2194
g4
I00
sg5
F0.3333333333333333
sg6
F0.6274509803921569
ssg7
(dp2195
g4
I00
sg5
F0.3333333333333333
sg6
F0.9803921568627451
ssg9
(dp2196
g4
I00
sg5
F0.7843137254901961
sg6
F0.9411764705882353
ssg11
(dp2197
g4
I00
sg5
F0.19607843137254902
sg6
F0.43137254901960786
ssg13
(dp2198
g4
I01
sg5
F0.2549019607843137
sg6
F1.0
ssa(dp2199
g2
(dp2200
g4
I00
sg5
F0.34
sg6
F0.6599999999999999
ssg7
(dp2201
g4
I01
sg5
F0.42
sg6
F1.0
ssg9
(dp2202
g4
I01
sg5
F0.8
sg6
F1.0
ssg11
(dp2203
g4
I00
sg5
F0.24
sg6
F0.8
ssg13
(dp2204
g4
I01
sg5
F0.2
sg6
F1.0
ssa(dp2205
g2
(dp2206
g4
I00
sg5
F0.3235294117647059
sg6
F0.5588235294117647
ssg7
(dp2207
g4
I01
sg5
F0.5
sg6
F1.0
ssg9
(dp2208
g4
I00
sg5
F0.7941176470588235
sg6
F0.9117647058823529
ssg11
(dp2209
g4
I00
sg5
F0.3235294117647059
sg6
F0.6764705882352942
ssg13
(dp2210
g4
I01
sg5
F0.38235294117647056
sg6
F1.0
ssa(dp2211
g2
(dp2212
g4
I00
sg5
F0.3333333333333333
sg6
F0.4666666666666667
ssg7
(dp2213
g4
I01
sg5
F0.5666666666666667
sg6
F1.0
ssg9
(dp2214
g4
I00
sg5
F0.8
sg6
F0.9666666666666667
ssg11
(dp2215
g4
I00
sg5
F0.3
sg6
F0.5
ssg13
(dp2216
g4
I01
sg5
F0.43333333333333335
sg6
F1.0
ssa(dp2217
g2
(dp2218
g4
I00
sg5
F0.3333333333333333
sg6
F0.5952380952380952
ssg7
(dp2219
g4
I01
sg5
F0.42857142857142855
sg6
F1.0
ssg9
(dp2220
g4
I00
sg5
F0.7857142857142857
sg6
F0.9285714285714286
ssg11
(dp2221
g4
I00
sg5
F0.21428571428571427
sg6
F0.5476190476190477
ssg13
(dp2222
g4
I01
sg5
F0.30952380952380953
sg6
F1.0
ssa(dp2223
g2
(dp2224
g4
I00
sg5
F0.3333333333333333
sg6
F0.5333333333333333
ssg7
(dp2225
g4
I00
sg5
F0.4666666666666667
sg6
F0.9333333333333333
ssg9
(dp2226
g4
I00
sg5
F0.8
sg6
F0.9333333333333333
ssg11
(dp2227
g4
I00
sg5
F0.4666666666666667
sg6
F0.8
ssg13
(dp2228
g4
I01
sg5
F0.4
sg6
F1.0
ssa(dp2229
g2
(dp2230
g4
I00
sg5
F0.3488372093023256
sg6
F0.8604651162790697
ssg7
(dp2231
g4
I01
sg5
F0.29069767441860467
sg6
F1.0
ssg9
(dp2232
g4
I01
sg5
F0.7906976744186046
sg6
F1.0
ssg11
(dp2233
g4
I00
sg5
F0.1744186046511628
sg6
F0.7325581395348837
ssg13
(dp2234
g4
I01
sg5
F0.11627906976744186
sg6
F1.0
ssa(dp2235
g2
(dp2236
g4
I00
sg5
F0.3492063492063492
sg6
F0.746031746031746
ssg7
(dp2237
g4
I01
sg5
F0.2857142857142857
sg6
F1.0
ssg9
(dp2238
g4
I00
sg5
F0.7936507936507936
sg6
F0.9206349206349207
ssg11
(dp2239
g4
I00
sg5
F0.19047619047619047
sg6
F0.5238095238095238
ssg13
(dp2240
g4
I01
sg5
F0.1746031746031746
sg6
F1.0
ssa(dp2241
g2
(dp2242
g4
I00
sg5
F0.3389830508474576
sg6
F0.6610169491525424
ssg7
(dp2243
g4
I01
sg5
F0.3220338983050847
sg6
F1.0
ssg9
(dp2244
g4
I00
sg5
F0.7966101694915254
sg6
F0.9830508474576272
ssg11
(dp2245
g4
I00
sg5
F0.23728813559322035
sg6
F0.711864406779661
ssg13
(dp2246
g4
I01
sg5
F0.15254237288135594
sg6
F1.0
ssa(dp2247
g2
(dp2248
g4
I00
sg5
F0.3333333333333333
sg6
F0.5641025641025641
ssg7
(dp2249
g4
I01
sg5
F0.41025641025641024
sg6
F1.0
ssg9
(dp2250
g4
I00
sg5
F0.7948717948717948
sg6
F0.9743589743589743
ssg11
(dp2251
g4
I00
sg5
F0.2564102564102564
sg6
F0.5897435897435898
ssg13
(dp2252
g4
I01
sg5
F0.2564102564102564
sg6
F1.0
ssa(dp2253
g2
(dp2254
g4
I00
sg5
F0.3409090909090909
sg6
F0.5227272727272727
ssg7
(dp2255
g4
I00
sg5
F0.38636363636363635
sg6
F0.9772727272727273
ssg9
(dp2256
g4
I00
sg5
F0.7954545454545454
sg6
F0.9772727272727273
ssg11
(dp2257
g4
I00
sg5
F0.22727272727272727
sg6
F0.6363636363636364
ssg13
(dp2258
g4
I01
sg5
F0.22727272727272727
sg6
F1.0
ssa(dp2259
g2
(dp2260
g4
I00
sg5
F0.3472222222222222
sg6
F0.8055555555555556
ssg7
(dp2261
g4
I01
sg5
F0.3194444444444444
sg6
F1.0
ssg9
(dp2262
g4
I01
sg5
F0.7916666666666666
sg6
F1.0
ssg11
(dp2263
g4
I00
sg5
F0.125
sg6
F0.375
ssg13
(dp2264
g4
I01
sg5
F0.125
sg6
F1.0
ssa(dp2265
g2
(dp2266
g4
I00
sg5
F0.3333333333333333
sg6
F0.5897435897435898
ssg7
(dp2267
g4
I00
sg5
F0.48717948717948717
sg6
F0.9743589743589743
ssg9
(dp2268
g4
I00
sg5
F0.7948717948717948
sg6
F0.9230769230769231
ssg11
(dp2269
g4
I00
sg5
F0.20512820512820512
sg6
F0.4358974358974359
ssg13
(dp2270
g4
I01
sg5
F0.28205128205128205
sg6
F1.0
ssa(dp2271
g2
(dp2272
g4
I00
sg5
F0.3404255319148936
sg6
F0.851063829787234
ssg7
(dp2273
g4
I01
sg5
F0.26595744680851063
sg6
F1.0
ssg9
(dp2274
g4
I01
sg5
F0.7978723404255319
sg6
F1.0
ssg11
(dp2275
g4
I00
sg5
F0.13829787234042554
sg6
F0.5106382978723405
ssg13
(dp2276
g4
I01
sg5
F0.09574468085106383
sg6
F1.0
ssa(dp2277
g2
(dp2278
g4
I00
sg5
F0.3333333333333333
sg6
F0.5641025641025641
ssg7
(dp2279
g4
I01
sg5
F0.4358974358974359
sg6
F1.0
ssg9
(dp2280
g4
I00
sg5
F0.7948717948717948
sg6
F0.9230769230769231
ssg11
(dp2281
g4
I00
sg5
F0.2564102564102564
sg6
F0.3846153846153846
ssg13
(dp2282
g4
I01
sg5
F0.28205128205128205
sg6
F1.0
ssa(dp2283
g2
(dp2284
g4
I00
sg5
F0.34146341463414637
sg6
F0.7560975609756098
ssg7
(dp2285
g4
I00
sg5
F0.3902439024390244
sg6
F0.926829268292683
ssg9
(dp2286
g4
I00
sg5
F0.7804878048780488
sg6
F0.975609756097561
ssg11
(dp2287
g4
I00
sg5
F0.21951219512195122
sg6
F0.6829268292682926
ssg13
(dp2288
g4
I01
sg5
F0.2926829268292683
sg6
F1.0
ssa(dp2289
g2
(dp2290
g4
I00
sg5
F0.3333333333333333
sg6
F0.6470588235294117
ssg7
(dp2291
g4
I00
sg5
F0.37254901960784315
sg6
F0.9803921568627451
ssg9
(dp2292
g4
I01
sg5
F0.7843137254901961
sg6
F1.0
ssg11
(dp2293
g4
I00
sg5
F0.19607843137254902
sg6
F0.4509803921568627
ssg13
(dp2294
g4
I01
sg5
F0.21568627450980393
sg6
F1.0
ssa(dp2295
g2
(dp2296
g4
I00
sg5
F0.3333333333333333
sg6
F0.5714285714285714
ssg7
(dp2297
g4
I01
sg5
F0.40476190476190477
sg6
F1.0
ssg9
(dp2298
g4
I00
sg5
F0.7857142857142857
sg6
F0.9285714285714286
ssg11
(dp2299
g4
I00
sg5
F0.19047619047619047
sg6
F0.4285714285714286
ssg13
(dp2300
g4
I01
sg5
F0.2619047619047619
sg6
F1.0
ssa(dp2301
g2
(dp2302
g4
I00
sg5
F0.34375
sg6
F0.75
ssg7
(dp2303
g4
I01
sg5
F0.34375
sg6
F1.0
ssg9
(dp2304
g4
I00
sg5
F0.796875
sg6
F0.96875
ssg11
(dp2305
g4
I00
sg5
F0.171875
sg6
F0.4375
ssg13
(dp2306
g4
I01
sg5
F0.15625
sg6
F1.0
ssa(dp2307
g2
(dp2308
g4
I00
sg5
F0.3333333333333333
sg6
F0.6274509803921569
ssg7
(dp2309
g4
I01
sg5
F0.35294117647058826
sg6
F1.0
ssg9
(dp2310
g4
I00
sg5
F0.7843137254901961
sg6
F0.9607843137254902
ssg11
(dp2311
g4
I00
sg5
F0.17647058823529413
sg6
F0.43137254901960786
ssg13
(dp2312
g4
I01
sg5
F0.19607843137254902
sg6
F1.0
ssa(dp2313
g2
(dp2314
g4
I00
sg5
F0.34545454545454546
sg6
F0.6909090909090909
ssg7
(dp2315
g4
I01
sg5
F0.43636363636363634
sg6
F1.0
ssg9
(dp2316
g4
I01
sg5
F0.8
sg6
F1.0
ssg11
(dp2317
g4
I00
sg5
F0.2545454545454545
sg6
F0.5636363636363637
ssg13
(dp2318
g4
I01
sg5
F0.18181818181818182
sg6
F1.0
ssa(dp2319
g2
(dp2320
g4
I00
sg5
F0.34831460674157305
sg6
F0.752808988764045
ssg7
(dp2321
g4
I01
sg5
F0.30337078651685395
sg6
F1.0
ssg9
(dp2322
g4
I00
sg5
F0.797752808988764
sg6
F0.9887640449438202
ssg11
(dp2323
g4
I00
sg5
F0.23595505617977527
sg6
F0.8426966292134832
ssg13
(dp2324
g4
I01
sg5
F0.10112359550561797
sg6
F1.0
ssa(dp2325
g2
(dp2326
g4
I00
sg5
F0.3473684210526316
sg6
F0.7684210526315789
ssg7
(dp2327
g4
I01
sg5
F0.28421052631578947
sg6
F1.0
ssg9
(dp2328
g4
I00
sg5
F0.8
sg6
F0.9789473684210527
ssg11
(dp2329
g4
I00
sg5
F0.11578947368421053
sg6
F0.5052631578947369
ssg13
(dp2330
g4
I01
sg5
F0.09473684210526316
sg6
F1.0
ssa(dp2331
g2
(dp2332
g4
I00
sg5
F0.3469387755102041
sg6
F0.6938775510204082
ssg7
(dp2333
g4
I01
sg5
F0.40816326530612246
sg6
F1.0
ssg9
(dp2334
g4
I00
sg5
F0.7959183673469388
sg6
F0.9183673469387755
ssg11
(dp2335
g4
I00
sg5
F0.22448979591836735
sg6
F0.4285714285714286
ssg13
(dp2336
g4
I01
sg5
F0.20408163265306123
sg6
F1.0
ssa(dp2337
g2
(dp2338
g4
I00
sg5
F0.3466666666666667
sg6
F0.72
ssg7
(dp2339
g4
I00
sg5
F0.28
sg6
F0.9866666666666667
ssg9
(dp2340
g4
I01
sg5
F0.8
sg6
F1.0
ssg11
(dp2341
g4
I00
sg5
F0.18666666666666668
sg6
F0.5733333333333333
ssg13
(dp2342
g4
I01
sg5
F0.16
sg6
F1.0
ssa(dp2343
g2
(dp2344
g4
I00
sg5
F0.3382352941176471
sg6
F0.6764705882352942
ssg7
(dp2345
g4
I01
sg5
F0.3088235294117647
sg6
F1.0
ssg9
(dp2346
g4
I00
sg5
F0.7941176470588235
sg6
F0.9852941176470589
ssg11
(dp2347
g4
I00
sg5
F0.25
sg6
F0.7941176470588236
ssg13
(dp2348
g4
I01
sg5
F0.1323529411764706
sg6
F1.0
ssa(dp2349
g2
(dp2350
g4
I00
sg5
F0.34615384615384615
sg6
F0.7948717948717949
ssg7
(dp2351
g4
I01
sg5
F0.32051282051282054
sg6
F1.0
ssg9
(dp2352
g4
I00
sg5
F0.7948717948717948
sg6
F0.9871794871794872
ssg11
(dp2353
g4
I00
sg5
F0.20512820512820512
sg6
F0.641025641025641
ssg13
(dp2354
g4
I01
sg5
F0.11538461538461539
sg6
F1.0
ssa(dp2355
g2
(dp2356
g4
I00
sg5
F0.34782608695652173
sg6
F0.8586956521739131
ssg7
(dp2357
g4
I01
sg5
F0.29347826086956524
sg6
F1.0
ssg9
(dp2358
g4
I01
sg5
F0.7934782608695652
sg6
F1.0
ssg11
(dp2359
g4
I00
sg5
F0.13043478260869565
sg6
F0.6847826086956521
ssg13
(dp2360
g4
I01
sg5
F0.09782608695652174
sg6
F1.0
ssa(dp2361
g2
(dp2362
g4
I00
sg5
F0.3411764705882353
sg6
F0.7647058823529411
ssg7
(dp2363
g4
I01
sg5
F0.3058823529411765
sg6
F1.0
ssg9
(dp2364
g4
I01
sg5
F0.8
sg6
F1.0
ssg11
(dp2365
g4
I00
sg5
F0.16470588235294117
sg6
F0.611764705882353
ssg13
(dp2366
g4
I01
sg5
F0.11764705882352941
sg6
F1.0
ssa(dp2367
g2
(dp2368
g4
I00
sg5
F0.345679012345679
sg6
F0.7654320987654322
ssg7
(dp2369
g4
I01
sg5
F0.30864197530864196
sg6
F1.0
ssg9
(dp2370
g4
I01
sg5
F0.7901234567901234
sg6
F1.0
ssg11
(dp2371
g4
I00
sg5
F0.16049382716049382
sg6
F0.7530864197530864
ssg13
(dp2372
g4
I01
sg5
F0.1111111111111111
sg6
F1.0
ssa(dp2373
g2
(dp2374
g4
I00
sg5
F0.35
sg6
F0.6333333333333333
ssg7
(dp2375
g4
I01
sg5
F0.3333333333333333
sg6
F1.0
ssg9
(dp2376
g4
I00
sg5
F0.8
sg6
F0.9833333333333333
ssg11
(dp2377
g4
I00
sg5
F0.2
sg6
F0.5666666666666667
ssg13
(dp2378
g4
I01
sg5
F0.16666666666666666
sg6
F1.0
ssa(dp2379
g2
(dp2380
g4
I00
sg5
F0.35
sg6
F0.8
ssg7
(dp2381
g4
I01
sg5
F0.3125
sg6
F1.0
ssg9
(dp2382
g4
I01
sg5
F0.8
sg6
F1.0
ssg11
(dp2383
g4
I00
sg5
F0.2
sg6
F0.725
ssg13
(dp2384
g4
I01
sg5
F0.1125
sg6
F1.0
ssa(dp2385
g2
(dp2386
g4
I00
sg5
F0.35
sg6
F0.7
ssg7
(dp2387
g4
I01
sg5
F0.3125
sg6
F1.0
ssg9
(dp2388
g4
I00
sg5
F0.8
sg6
F0.975
ssg11
(dp2389
g4
I00
sg5
F0.1625
sg6
F0.5625
ssg13
(dp2390
g4
I01
sg5
F0.1125
sg6
F1.0
ssa(dp2391
g2
(dp2392
g4
I00
sg5
F0.3434343434343434
sg6
F0.898989898989899
ssg7
(dp2393
g4
I01
sg5
F0.25252525252525254
sg6
F1.0
ssg9
(dp2394
g4
I00
sg5
F0.797979797979798
sg6
F0.9797979797979798
ssg11
(dp2395
g4
I00
sg5
F0.1111111111111111
sg6
F0.6565656565656566
ssg13
(dp2396
g4
I01
sg5
F0.09090909090909091
sg6
F1.0
ssa(dp2397
g2
(dp2398
g4
I00
sg5
F0.34782608695652173
sg6
F0.7391304347826086
ssg7
(dp2399
g4
I01
sg5
F0.3188405797101449
sg6
F1.0
ssg9
(dp2400
g4
I00
sg5
F0.7971014492753623
sg6
F0.9855072463768116
ssg11
(dp2401
g4
I00
sg5
F0.17391304347826086
sg6
F0.42028985507246375
ssg13
(dp2402
g4
I01
sg5
F0.17391304347826086
sg6
F1.0
ssa(dp2403
g2
(dp2404
g4
I00
sg5
F0.34375
sg6
F0.34375
ssg7
(dp2405
g4
I00
sg5
F0.53125
sg6
F0.96875
ssg9
(dp2406
g4
I00
sg5
F0.78125
sg6
F0.875
ssg11
(dp2407
g4
I00
sg5
F0.28125
sg6
F0.40625
ssg13
(dp2408
g4
I01
sg5
F0.40625
sg6
F1.0
ssa(dp2409
g2
(dp2410
g4
I00
sg5
F0.34782608695652173
sg6
F0.7391304347826086
ssg7
(dp2411
g4
I01
sg5
F0.2717391304347826
sg6
F1.0
ssg9
(dp2412
g4
I01
sg5
F0.7934782608695652
sg6
F1.0
ssg11
(dp2413
g4
I00
sg5
F0.13043478260869565
sg6
F0.4130434782608695
ssg13
(dp2414
g4
I01
sg5
F0.09782608695652174
sg6
F1.0
ssa(dp2415
g2
(dp2416
g4
I00
sg5
F0.34210526315789475
sg6
F0.631578947368421
ssg7
(dp2417
g4
I01
sg5
F0.4473684210526316
sg6
F1.0
ssg9
(dp2418
g4
I00
sg5
F0.7894736842105263
sg6
F0.9473684210526316
ssg11
(dp2419
g4
I00
sg5
F0.21052631578947367
sg6
F0.4736842105263158
ssg13
(dp2420
g4
I01
sg5
F0.2631578947368421
sg6
F1.0
ssa(dp2421
g2
(dp2422
g4
I00
sg5
F0.3493975903614458
sg6
F0.7951807228915663
ssg7
(dp2423
g4
I01
sg5
F0.3132530120481928
sg6
F1.0
ssg9
(dp2424
g4
I01
sg5
F0.7951807228915663
sg6
F1.0
ssg11
(dp2425
g4
I00
sg5
F0.1566265060240964
sg6
F0.49397590361445787
ssg13
(dp2426
g4
I01
sg5
F0.10843373493975904
sg6
F1.0
ssa(dp2427
g2
(dp2428
g4
I00
sg5
F0.3434343434343434
sg6
F0.8080808080808081
ssg7
(dp2429
g4
I01
sg5
F0.2727272727272727
sg6
F1.0
ssg9
(dp2430
g4
I01
sg5
F0.797979797979798
sg6
F1.0
ssg11
(dp2431
g4
I00
sg5
F0.21212121212121213
sg6
F0.8080808080808081
ssg13
(dp2432
g4
I01
sg5
F0.09090909090909091
sg6
F1.0
ssa(dp2433
g2
(dp2434
g4
I00
sg5
F0.34328358208955223
sg6
F0.6417910447761195
ssg7
(dp2435
g4
I01
sg5
F0.3283582089552239
sg6
F1.0
ssg9
(dp2436
g4
I01
sg5
F0.7910447761194029
sg6
F1.0
ssg11
(dp2437
g4
I00
sg5
F0.1791044776119403
sg6
F0.4626865671641791
ssg13
(dp2438
g4
I01
sg5
F0.14925373134328357
sg6
F1.0
ssa(dp2439
g2
(dp2440
g4
I00
sg5
F0.3333333333333333
sg6
F0.6666666666666667
ssg7
(dp2441
g4
I01
sg5
F0.5833333333333334
sg6
F1.0
ssg9
(dp2442
g4
I01
sg5
F0.7777777777777778
sg6
F1.0
ssg11
(dp2443
g4
I00
sg5
F0.19444444444444445
sg6
F0.4722222222222222
ssg13
(dp2444
g4
I01
sg5
F0.2777777777777778
sg6
F1.0
ssa(dp2445
g2
(dp2446
g4
I00
sg5
F0.33766233766233766
sg6
F0.8181818181818181
ssg7
(dp2447
g4
I01
sg5
F0.2987012987012987
sg6
F1.0
ssg9
(dp2448
g4
I00
sg5
F0.7922077922077922
sg6
F0.987012987012987
ssg11
(dp2449
g4
I00
sg5
F0.18181818181818182
sg6
F0.6103896103896104
ssg13
(dp2450
g4
I01
sg5
F0.12987012987012986
sg6
F1.0
ssa(dp2451
g2
(dp2452
g4
I00
sg5
F0.3488372093023256
sg6
F0.5348837209302326
ssg7
(dp2453
g4
I00
sg5
F0.4186046511627907
sg6
F0.9767441860465116
ssg9
(dp2454
g4
I00
sg5
F0.7906976744186046
sg6
F0.9767441860465116
ssg11
(dp2455
g4
I00
sg5
F0.3488372093023256
sg6
F0.6976744186046512
ssg13
(dp2456
g4
I01
sg5
F0.27906976744186046
sg6
F1.0
ssa(dp2457
g2
(dp2458
g4
I00
sg5
F0.3333333333333333
sg6
F0.7083333333333333
ssg7
(dp2459
g4
I01
sg5
F0.3958333333333333
sg6
F1.0
ssg9
(dp2460
g4
I00
sg5
F0.7916666666666666
sg6
F0.9583333333333334
ssg11
(dp2461
g4
I00
sg5
F0.20833333333333334
sg6
F0.5625
ssg13
(dp2462
g4
I01
sg5
F0.20833333333333334
sg6
F1.0
ssa(dp2463
g2
(dp2464
g4
I00
sg5
F0.34615384615384615
sg6
F0.7115384615384616
ssg7
(dp2465
g4
I01
sg5
F0.40384615384615385
sg6
F1.0
ssg9
(dp2466
g4
I00
sg5
F0.7884615384615384
sg6
F0.9807692307692307
ssg11
(dp2467
g4
I00
sg5
F0.19230769230769232
sg6
F0.40384615384615385
ssg13
(dp2468
g4
I01
sg5
F0.23076923076923078
sg6
F1.0
ssa(dp2469
g2
(dp2470
g4
I00
sg5
F0.3488372093023256
sg6
F0.5813953488372092
ssg7
(dp2471
g4
I01
sg5
F0.4418604651162791
sg6
F1.0
ssg9
(dp2472
g4
I00
sg5
F0.7906976744186046
sg6
F0.9767441860465116
ssg11
(dp2473
g4
I00
sg5
F0.37209302325581395
sg6
F0.7209302325581395
ssg13
(dp2474
g4
I01
sg5
F0.23255813953488372
sg6
F1.0
ssa(dp2475
g2
(dp2476
g4
I00
sg5
F0.34782608695652173
sg6
F0.6666666666666667
ssg7
(dp2477
g4
I01
sg5
F0.34782608695652173
sg6
F1.0
ssg9
(dp2478
g4
I01
sg5
F0.7971014492753623
sg6
F1.0
ssg11
(dp2479
g4
I00
sg5
F0.17391304347826086
sg6
F0.5507246376811594
ssg13
(dp2480
g4
I01
sg5
F0.13043478260869565
sg6
F1.0
ssa(dp2481
g2
(dp2482
g4
I00
sg5
F0.3492063492063492
sg6
F0.6349206349206349
ssg7
(dp2483
g4
I01
sg5
F0.36507936507936506
sg6
F1.0
ssg9
(dp2484
g4
I00
sg5
F0.7936507936507936
sg6
F0.9682539682539683
ssg11
(dp2485
g4
I00
sg5
F0.23809523809523808
sg6
F0.5555555555555556
ssg13
(dp2486
g4
I01
sg5
F0.14285714285714285
sg6
F1.0
ssa(dp2487
g2
(dp2488
g4
I00
sg5
F0.3469387755102041
sg6
F0.826530612244898
ssg7
(dp2489
g4
I01
sg5
F0.2755102040816326
sg6
F1.0
ssg9
(dp2490
g4
I00
sg5
F0.7959183673469388
sg6
F0.9795918367346939
ssg11
(dp2491
g4
I00
sg5
F0.10204081632653061
sg6
F0.34693877551020413
ssg13
(dp2492
g4
I01
sg5
F0.09183673469387756
sg6
F1.0
ssa(dp2493
g2
(dp2494
g4
I00
sg5
F0.3389830508474576
sg6
F0.6949152542372881
ssg7
(dp2495
g4
I01
sg5
F0.3559322033898305
sg6
F1.0
ssg9
(dp2496
g4
I00
sg5
F0.7966101694915254
sg6
F0.9830508474576272
ssg11
(dp2497
g4
I00
sg5
F0.2711864406779661
sg6
F0.6949152542372881
ssg13
(dp2498
g4
I01
sg5
F0.1864406779661017
sg6
F1.0
ssa(dp2499
g2
(dp2500
g4
I00
sg5
F0.34065934065934067
sg6
F0.7802197802197802
ssg7
(dp2501
g4
I01
sg5
F0.2857142857142857
sg6
F1.0
ssg9
(dp2502
g4
I00
sg5
F0.7912087912087912
sg6
F0.978021978021978
ssg11
(dp2503
g4
I00
sg5
F0.10989010989010989
sg6
F0.41758241758241754
ssg13
(dp2504
g4
I01
sg5
F0.0989010989010989
sg6
F1.0
ssa(dp2505
g2
(dp2506
g4
I00
sg5
F0.3434343434343434
sg6
F0.7878787878787878
ssg7
(dp2507
g4
I01
sg5
F0.30303030303030304
sg6
F1.0
ssg9
(dp2508
g4
I00
sg5
F0.797979797979798
sg6
F0.98989898989899
ssg11
(dp2509
g4
I00
sg5
F0.16161616161616163
sg6
F0.7070707070707071
ssg13
(dp2510
g4
I01
sg5
F0.09090909090909091
sg6
F1.0
ssa(dp2511
g2
(dp2512
g4
I00
sg5
F0.34146341463414637
sg6
F0.8048780487804879
ssg7
(dp2513
g4
I01
sg5
F0.25609756097560976
sg6
F1.0
ssg9
(dp2514
g4
I00
sg5
F0.7926829268292683
sg6
F0.9512195121951219
ssg11
(dp2515
g4
I00
sg5
F0.14634146341463414
sg6
F0.6097560975609756
ssg13
(dp2516
g4
I01
sg5
F0.10975609756097561
sg6
F1.0
ssa(dp2517
g2
(dp2518
g4
I00
sg5
F0.33962264150943394
sg6
F0.7735849056603774
ssg7
(dp2519
g4
I01
sg5
F0.33962264150943394
sg6
F1.0
ssg9
(dp2520
g4
I00
sg5
F0.7924528301886793
sg6
F0.9622641509433962
ssg11
(dp2521
g4
I00
sg5
F0.22641509433962265
sg6
F0.8867924528301887
ssg13
(dp2522
g4
I01
sg5
F0.20754716981132076
sg6
F1.0
ssa(dp2523
g2
(dp2524
g4
I00
sg5
F0.34146341463414637
sg6
F0.8536585365853658
ssg7
(dp2525
g4
I01
sg5
F0.3170731707317073
sg6
F1.0
ssg9
(dp2526
g4
I01
sg5
F0.7926829268292683
sg6
F1.0
ssg11
(dp2527
g4
I00
sg5
F0.12195121951219512
sg6
F0.426829268292683
ssg13
(dp2528
g4
I01
sg5
F0.10975609756097561
sg6
F1.0
ssa(dp2529
g2
(dp2530
g4
I00
sg5
F0.3448275862068966
sg6
F0.8735632183908046
ssg7
(dp2531
g4
I01
sg5
F0.27586206896551724
sg6
F1.0
ssg9
(dp2532
g4
I00
sg5
F0.7931034482758621
sg6
F0.9770114942528736
ssg11
(dp2533
g4
I00
sg5
F0.16091954022988506
sg6
F0.8620689655172413
ssg13
(dp2534
g4
I01
sg5
F0.10344827586206896
sg6
F1.0
ssa(dp2535
g2
(dp2536
g4
I00
sg5
F0.3493975903614458
sg6
F0.8433734939759037
ssg7
(dp2537
g4
I01
sg5
F0.30120481927710846
sg6
F1.0
ssg9
(dp2538
g4
I01
sg5
F0.7951807228915663
sg6
F1.0
ssg11
(dp2539
g4
I00
sg5
F0.10843373493975904
sg6
F0.5783132530120482
ssg13
(dp2540
g4
I01
sg5
F0.10843373493975904
sg6
F1.0
ssa(dp2541
g2
(dp2542
g4
I00
sg5
F0.3469387755102041
sg6
F0.6734693877551021
ssg7
(dp2543
g4
I01
sg5
F0.3877551020408163
sg6
F1.0
ssg9
(dp2544
g4
I00
sg5
F0.7959183673469388
sg6
F0.9591836734693877
ssg11
(dp2545
g4
I00
sg5
F0.22448979591836735
sg6
F0.3877551020408163
ssg13
(dp2546
g4
I01
sg5
F0.20408163265306123
sg6
F1.0
ssa(dp2547
g2
(dp2548
g4
I00
sg5
F0.3434343434343434
sg6
F0.8181818181818181
ssg7
(dp2549
g4
I01
sg5
F0.26262626262626265
sg6
F1.0
ssg9
(dp2550
g4
I00
sg5
F0.797979797979798
sg6
F0.9797979797979798
ssg11
(dp2551
g4
I00
sg5
F0.1717171717171717
sg6
F0.5151515151515151
ssg13
(dp2552
g4
I01
sg5
F0.09090909090909091
sg6
F1.0
ssa(dp2553
g2
(dp2554
g4
I00
sg5
F0.3382352941176471
sg6
F0.7058823529411764
ssg7
(dp2555
g4
I01
sg5
F0.3235294117647059
sg6
F1.0
ssg9
(dp2556
g4
I00
sg5
F0.7941176470588235
sg6
F0.9852941176470589
ssg11
(dp2557
g4
I00
sg5
F0.16176470588235295
sg6
F0.6323529411764706
ssg13
(dp2558
g4
I01
sg5
F0.14705882352941177
sg6
F1.0
ssa(dp2559
g2
(dp2560
g4
I00
sg5
F0.34177215189873417
sg6
F0.7848101265822784
ssg7
(dp2561
g4
I01
sg5
F0.34177215189873417
sg6
F1.0
ssg9
(dp2562
g4
I01
sg5
F0.7974683544303798
sg6
F1.0
ssg11
(dp2563
g4
I00
sg5
F0.20253164556962025
sg6
F0.8860759493670887
ssg13
(dp2564
g4
I01
sg5
F0.11392405063291139
sg6
F1.0
ssa(dp2565
g2
(dp2566
g4
I00
sg5
F0.3402061855670103
sg6
F0.8041237113402062
ssg7
(dp2567
g4
I01
sg5
F0.27835051546391754
sg6
F1.0
ssg9
(dp2568
g4
I01
sg5
F0.7938144329896907
sg6
F1.0
ssg11
(dp2569
g4
I00
sg5
F0.13402061855670103
sg6
F0.4639175257731959
ssg13
(dp2570
g4
I01
sg5
F0.09278350515463918
sg6
F1.0
ssa(dp2571
g2
(dp2572
g4
I00
sg5
F0.3333333333333333
sg6
F0.5882352941176471
ssg7
(dp2573
g4
I01
sg5
F0.37254901960784315
sg6
F1.0
ssg9
(dp2574
g4
I01
sg5
F0.7843137254901961
sg6
F1.0
ssg11
(dp2575
g4
I00
sg5
F0.17647058823529413
sg6
F0.37254901960784315
ssg13
(dp2576
g4
I01
sg5
F0.2549019607843137
sg6
F1.0
ssa(dp2577
g2
(dp2578
g4
I00
sg5
F0.34375
sg6
F0.46875
ssg7
(dp2579
g4
I00
sg5
F0.4375
sg6
F0.9375
ssg9
(dp2580
g4
I00
sg5
F0.78125
sg6
F0.96875
ssg11
(dp2581
g4
I00
sg5
F0.40625
sg6
F0.84375
ssg13
(dp2582
g4
I01
sg5
F0.40625
sg6
F1.0
ssa(dp2583
g2
(dp2584
g4
I00
sg5
F0.34375
sg6
F0.5
ssg7
(dp2585
g4
I00
sg5
F0.46875
sg6
F0.8125
ssg9
(dp2586
g4
I00
sg5
F0.78125
sg6
F0.90625
ssg11
(dp2587
g4
I00
sg5
F0.28125
sg6
F0.53125
ssg13
(dp2588
g4
I01
sg5
F0.34375
sg6
F1.0
ssa(dp2589
g2
(dp2590
g4
I00
sg5
F0.35
sg6
F0.6666666666666667
ssg7
(dp2591
g4
I01
sg5
F0.26666666666666666
sg6
F1.0
ssg9
(dp2592
g4
I00
sg5
F0.8
sg6
F0.9833333333333333
ssg11
(dp2593
g4
I00
sg5
F0.11666666666666667
sg6
F0.33333333333333337
ssg13
(dp2594
g4
I01
sg5
F0.18333333333333332
sg6
F1.0
ssa(dp2595
g2
(dp2596
g4
I00
sg5
F0.34444444444444444
sg6
F0.8666666666666667
ssg7
(dp2597
g4
I01
sg5
F0.32222222222222224
sg6
F1.0
ssg9
(dp2598
g4
I00
sg5
F0.8
sg6
F0.9888888888888889
ssg11
(dp2599
g4
I00
sg5
F0.1111111111111111
sg6
F0.4666666666666667
ssg13
(dp2600
g4
I01
sg5
F0.1
sg6
F1.0
ssa(dp2601
g2
(dp2602
g4
I00
sg5
F0.3402061855670103
sg6
F0.845360824742268
ssg7
(dp2603
g4
I01
sg5
F0.26804123711340205
sg6
F1.0
ssg9
(dp2604
g4
I00
sg5
F0.7938144329896907
sg6
F0.979381443298969
ssg11
(dp2605
g4
I00
sg5
F0.12371134020618557
sg6
F0.6597938144329897
ssg13
(dp2606
g4
I01
sg5
F0.09278350515463918
sg6
F1.0
ssa(dp2607
g2
(dp2608
g4
I00
sg5
F0.34408602150537637
sg6
F0.7419354838709677
ssg7
(dp2609
g4
I01
sg5
F0.2903225806451613
sg6
F1.0
ssg9
(dp2610
g4
I00
sg5
F0.7956989247311828
sg6
F0.978494623655914
ssg11
(dp2611
g4
I00
sg5
F0.11827956989247312
sg6
F0.3655913978494624
ssg13
(dp2612
g4
I01
sg5
F0.0967741935483871
sg6
F1.0
ssa(dp2613
g2
(dp2614
g4
I00
sg5
F0.3333333333333333
sg6
F0.48484848484848486
ssg7
(dp2615
g4
I01
sg5
F0.5151515151515151
sg6
F1.0
ssg9
(dp2616
g4
I00
sg5
F0.7878787878787878
sg6
F0.8181818181818181
ssg11
(dp2617
g4
I00
sg5
F0.24242424242424243
sg6
F0.5151515151515151
ssg13
(dp2618
g4
I01
sg5
F0.30303030303030304
sg6
F1.0
ssa(dp2619
g2
(dp2620
g4
I00
sg5
F0.33783783783783783
sg6
F0.7567567567567568
ssg7
(dp2621
g4
I01
sg5
F0.33783783783783783
sg6
F1.0
ssg9
(dp2622
g4
I00
sg5
F0.7972972972972973
sg6
F0.9864864864864865
ssg11
(dp2623
g4
I00
sg5
F0.14864864864864866
sg6
F0.5
ssg13
(dp2624
g4
I01
sg5
F0.12162162162162163
sg6
F1.0
ssa(dp2625
g2
(dp2626
g4
I00
sg5
F0.345679012345679
sg6
F0.8148148148148149
ssg7
(dp2627
g4
I01
sg5
F0.2839506172839506
sg6
F1.0
ssg9
(dp2628
g4
I00
sg5
F0.7901234567901234
sg6
F0.9876543209876543
ssg11
(dp2629
g4
I00
sg5
F0.14814814814814814
sg6
F0.5432098765432098
ssg13
(dp2630
g4
I01
sg5
F0.12345679012345678
sg6
F1.0
ssa(dp2631
g2
(dp2632
g4
I00
sg5
F0.3404255319148936
sg6
F0.8297872340425532
ssg7
(dp2633
g4
I01
sg5
F0.2765957446808511
sg6
F1.0
ssg9
(dp2634
g4
I01
sg5
F0.7978723404255319
sg6
F1.0
ssg11
(dp2635
g4
I00
sg5
F0.0851063829787234
sg6
F0.4148936170212766
ssg13
(dp2636
g4
I01
sg5
F0.09574468085106383
sg6
F1.0
ssa(dp2637
g2
(dp2638
g4
I00
sg5
F0.3488372093023256
sg6
F0.7674418604651163
ssg7
(dp2639
g4
I01
sg5
F0.27906976744186046
sg6
F1.0
ssg9
(dp2640
g4
I01
sg5
F0.7906976744186046
sg6
F1.0
ssg11
(dp2641
g4
I00
sg5
F0.1511627906976744
sg6
F0.33720930232558144
ssg13
(dp2642
g4
I01
sg5
F0.10465116279069768
sg6
F1.0
ssa(dp2643
g2
(dp2644
g4
I00
sg5
F0.3488372093023256
sg6
F0.872093023255814
ssg7
(dp2645
g4
I01
sg5
F0.29069767441860467
sg6
F1.0
ssg9
(dp2646
g4
I00
sg5
F0.7906976744186046
sg6
F0.9651162790697675
ssg11
(dp2647
g4
I00
sg5
F0.12790697674418605
sg6
F0.5116279069767442
ssg13
(dp2648
g4
I01
sg5
F0.11627906976744186
sg6
F1.0
ssa(dp2649
g2
(dp2650
g4
I00
sg5
F0.3472222222222222
sg6
F0.75
ssg7
(dp2651
g4
I01
sg5
F0.3055555555555556
sg6
F1.0
ssg9
(dp2652
g4
I01
sg5
F0.7916666666666666
sg6
F1.0
ssg11
(dp2653
g4
I00
sg5
F0.19444444444444445
sg6
F0.5972222222222222
ssg13
(dp2654
g4
I01
sg5
F0.125
sg6
F1.0
ssa(dp2655
g2
(dp2656
g4
I00
sg5
F0.3424657534246575
sg6
F0.726027397260274
ssg7
(dp2657
g4
I00
sg5
F0.2602739726027397
sg6
F0.9726027397260274
ssg9
(dp2658
g4
I00
sg5
F0.7945205479452054
sg6
F0.9178082191780822
ssg11
(dp2659
g4
I00
sg5
F0.136986301369863
sg6
F0.4246575342465754
ssg13
(dp2660
g4
I01
sg5
F0.1643835616438356
sg6
F1.0
ssa(dp2661
g2
(dp2662
g4
I00
sg5
F0.3484848484848485
sg6
F0.6515151515151515
ssg7
(dp2663
g4
I01
sg5
F0.36363636363636365
sg6
F1.0
ssg9
(dp2664
g4
I00
sg5
F0.7878787878787878
sg6
F0.9393939393939394
ssg11
(dp2665
g4
I00
sg5
F0.2878787878787879
sg6
F0.9090909090909091
ssg13
(dp2666
g4
I01
sg5
F0.15151515151515152
sg6
F1.0
ssa(dp2667
g2
(dp2668
g4
I00
sg5
F0.3333333333333333
sg6
F0.5151515151515151
ssg7
(dp2669
g4
I01
sg5
F0.5151515151515151
sg6
F1.0
ssg9
(dp2670
g4
I00
sg5
F0.7878787878787878
sg6
F0.9696969696969697
ssg11
(dp2671
g4
I00
sg5
F0.3333333333333333
sg6
F0.6666666666666667
ssg13
(dp2672
g4
I01
sg5
F0.2727272727272727
sg6
F1.0
ssa(dp2673
g2
(dp2674
g4
I00
sg5
F0.3472222222222222
sg6
F0.7916666666666666
ssg7
(dp2675
g4
I01
sg5
F0.3472222222222222
sg6
F1.0
ssg9
(dp2676
g4
I00
sg5
F0.7916666666666666
sg6
F0.9861111111111112
ssg11
(dp2677
g4
I00
sg5
F0.16666666666666666
sg6
F0.5833333333333333
ssg13
(dp2678
g4
I01
sg5
F0.1388888888888889
sg6
F1.0
ssa(dp2679
g2
(dp2680
g4
I00
sg5
F0.3492063492063492
sg6
F0.6507936507936508
ssg7
(dp2681
g4
I01
sg5
F0.3492063492063492
sg6
F1.0
ssg9
(dp2682
g4
I01
sg5
F0.7936507936507936
sg6
F1.0
ssg11
(dp2683
g4
I00
sg5
F0.20634920634920634
sg6
F0.6190476190476191
ssg13
(dp2684
g4
I01
sg5
F0.15873015873015872
sg6
F1.0
ssa(dp2685
g2
(dp2686
g4
I00
sg5
F0.34146341463414637
sg6
F0.8658536585365854
ssg7
(dp2687
g4
I01
sg5
F0.3048780487804878
sg6
F1.0
ssg9
(dp2688
g4
I00
sg5
F0.7926829268292683
sg6
F0.9634146341463414
ssg11
(dp2689
g4
I00
sg5
F0.15853658536585366
sg6
F0.524390243902439
ssg13
(dp2690
g4
I01
sg5
F0.10975609756097561
sg6
F1.0
ssa(dp2691
g2
(dp2692
g4
I00
sg5
F0.3411764705882353
sg6
F0.788235294117647
ssg7
(dp2693
g4
I00
sg5
F0.29411764705882354
sg6
F0.9882352941176471
ssg9
(dp2694
g4
I00
sg5
F0.8
sg6
F0.9882352941176471
ssg11
(dp2695
g4
I00
sg5
F0.17647058823529413
sg6
F0.8352941176470589
ssg13
(dp2696
g4
I01
sg5
F0.10588235294117647
sg6
F1.0
ssa(dp2697
g2
(dp2698
g4
I00
sg5
F0.34615384615384615
sg6
F0.5512820512820513
ssg7
(dp2699
g4
I01
sg5
F0.2948717948717949
sg6
F1.0
ssg9
(dp2700
g4
I01
sg5
F0.7948717948717948
sg6
F1.0
ssg11
(dp2701
g4
I00
sg5
F0.14102564102564102
sg6
F0.4871794871794872
ssg13
(dp2702
g4
I01
sg5
F0.11538461538461539
sg6
F1.0
ssa(dp2703
g2
(dp2704
g4
I00
sg5
F0.3387096774193548
sg6
F0.6612903225806452
ssg7
(dp2705
g4
I01
sg5
F0.3709677419354839
sg6
F1.0
ssg9
(dp2706
g4
I00
sg5
F0.7903225806451613
sg6
F0.967741935483871
ssg11
(dp2707
g4
I00
sg5
F0.1935483870967742
sg6
F0.5806451612903225
ssg13
(dp2708
g4
I01
sg5
F0.16129032258064516
sg6
F1.0
ssa(dp2709
g2
(dp2710
g4
I00
sg5
F0.345679012345679
sg6
F0.8148148148148149
ssg7
(dp2711
g4
I01
sg5
F0.2839506172839506
sg6
F1.0
ssg9
(dp2712
g4
I00
sg5
F0.7901234567901234
sg6
F0.9876543209876543
ssg11
(dp2713
g4
I00
sg5
F0.07407407407407407
sg6
F0.2592592592592593
ssg13
(dp2714
g4
I01
sg5
F0.12345679012345678
sg6
F1.0
ssa(dp2715
g2
(dp2716
g4
I00
sg5
F0.3235294117647059
sg6
F0.4411764705882353
ssg7
(dp2717
g4
I01
sg5
F0.4411764705882353
sg6
F1.0
ssg9
(dp2718
g4
I00
sg5
F0.7941176470588235
sg6
F0.9411764705882353
ssg11
(dp2719
g4
I00
sg5
F0.29411764705882354
sg6
F0.4117647058823529
ssg13
(dp2720
g4
I01
sg5
F0.3235294117647059
sg6
F1.0
ssa(dp2721
g2
(dp2722
g4
I00
sg5
F0.3469387755102041
sg6
F0.6122448979591837
ssg7
(dp2723
g4
I01
sg5
F0.42857142857142855
sg6
F1.0
ssg9
(dp2724
g4
I00
sg5
F0.7959183673469388
sg6
F0.9795918367346939
ssg11
(dp2725
g4
I00
sg5
F0.16326530612244897
sg6
F0.5510204081632653
ssg13
(dp2726
g4
I01
sg5
F0.1836734693877551
sg6
F1.0
ssa(dp2727
g2
(dp2728
g4
I00
sg5
F0.3442622950819672
sg6
F0.7540983606557377
ssg7
(dp2729
g4
I01
sg5
F0.3114754098360656
sg6
F1.0
ssg9
(dp2730
g4
I00
sg5
F0.7868852459016393
sg6
F0.9836065573770492
ssg11
(dp2731
g4
I00
sg5
F0.18032786885245902
sg6
F0.540983606557377
ssg13
(dp2732
g4
I01
sg5
F0.14754098360655737
sg6
F1.0
ssa(dp2733
g2
(dp2734
g4
I00
sg5
F0.3387096774193548
sg6
F0.5483870967741935
ssg7
(dp2735
g4
I01
sg5
F0.3387096774193548
sg6
F1.0
ssg9
(dp2736
g4
I00
sg5
F0.7903225806451613
sg6
F0.9838709677419355
ssg11
(dp2737
g4
I00
sg5
F0.20967741935483872
sg6
F0.6451612903225806
ssg13
(dp2738
g4
I01
sg5
F0.16129032258064516
sg6
F1.0
ssa(dp2739
g2
(dp2740
g4
I00
sg5
F0.34177215189873417
sg6
F0.8354430379746836
ssg7
(dp2741
g4
I01
sg5
F0.2911392405063291
sg6
F1.0
ssg9
(dp2742
g4
I00
sg5
F0.7974683544303798
sg6
F0.9746835443037974
ssg11
(dp2743
g4
I00
sg5
F0.12658227848101267
sg6
F0.36708860759493667
ssg13
(dp2744
g4
I01
sg5
F0.11392405063291139
sg6
F1.0
ssa(dp2745
g2
(dp2746
g4
I00
sg5
F0.3333333333333333
sg6
F0.5833333333333333
ssg7
(dp2747
g4
I01
sg5
F0.3541666666666667
sg6
F1.0
ssg9
(dp2748
g4
I00
sg5
F0.7916666666666666
sg6
F0.9375
ssg11
(dp2749
g4
I00
sg5
F0.25
sg6
F0.6666666666666667
ssg13
(dp2750
g4
I01
sg5
F0.2708333333333333
sg6
F1.0
ssa(dp2751
g2
(dp2752
g4
I00
sg5
F0.3333333333333333
sg6
F0.6842105263157895
ssg7
(dp2753
g4
I01
sg5
F0.3684210526315789
sg6
F1.0
ssg9
(dp2754
g4
I00
sg5
F0.7894736842105263
sg6
F0.9473684210526316
ssg11
(dp2755
g4
I00
sg5
F0.22807017543859648
sg6
F0.6140350877192983
ssg13
(dp2756
g4
I01
sg5
F0.15789473684210525
sg6
F1.0
ssa(dp2757
g2
(dp2758
g4
I00
sg5
F0.3225806451612903
sg6
F0.4516129032258065
ssg7
(dp2759
g4
I01
sg5
F0.5161290322580645
sg6
F1.0
ssg9
(dp2760
g4
I00
sg5
F0.7741935483870968
sg6
F0.935483870967742
ssg11
(dp2761
g4
I00
sg5
F0.3870967741935484
sg6
F0.7741935483870968
ssg13
(dp2762
g4
I01
sg5
F0.3225806451612903
sg6
F1.0
ssa(dp2763
g2
(dp2764
g4
I00
sg5
F0.3333333333333333
sg6
F0.5757575757575757
ssg7
(dp2765
g4
I01
sg5
F0.42424242424242425
sg6
F1.0
ssg9
(dp2766
g4
I00
sg5
F0.7878787878787878
sg6
F0.9696969696969697
ssg11
(dp2767
g4
I00
sg5
F0.30303030303030304
sg6
F0.5151515151515151
ssg13
(dp2768
g4
I01
sg5
F0.3333333333333333
sg6
F1.0
ssa(dp2769
g2
(dp2770
g4
I00
sg5
F0.34523809523809523
sg6
F0.9047619047619048
ssg7
(dp2771
g4
I01
sg5
F0.30952380952380953
sg6
F1.0
ssg9
(dp2772
g4
I00
sg5
F0.7976190476190477
sg6
F0.9880952380952381
ssg11
(dp2773
g4
I00
sg5
F0.10714285714285714
sg6
F0.3571428571428571
ssg13
(dp2774
g4
I01
sg5
F0.10714285714285714
sg6
F1.0
ssa(dp2775
g2
(dp2776
g4
I00
sg5
F0.3333333333333333
sg6
F0.6666666666666667
ssg7
(dp2777
g4
I00
sg5
F0.46153846153846156
sg6
F0.9230769230769231
ssg9
(dp2778
g4
I01
sg5
F0.7948717948717948
sg6
F1.0
ssg11
(dp2779
g4
I00
sg5
F0.2564102564102564
sg6
F0.5897435897435898
ssg13
(dp2780
g4
I01
sg5
F0.3076923076923077
sg6
F1.0
ssa(dp2781
g2
(dp2782
g4
I00
sg5
F0.3404255319148936
sg6
F0.7021276595744681
ssg7
(dp2783
g4
I01
sg5
F0.425531914893617
sg6
F1.0
ssg9
(dp2784
g4
I00
sg5
F0.7872340425531915
sg6
F0.9574468085106383
ssg11
(dp2785
g4
I00
sg5
F0.1702127659574468
sg6
F0.5531914893617021
ssg13
(dp2786
g4
I01
sg5
F0.23404255319148937
sg6
F1.0
ssa(dp2787
g2
(dp2788
g4
I00
sg5
F0.3333333333333333
sg6
F0.6274509803921569
ssg7
(dp2789
g4
I00
sg5
F0.37254901960784315
sg6
F0.9411764705882353
ssg9
(dp2790
g4
I01
sg5
F0.7843137254901961
sg6
F1.0
ssg11
(dp2791
g4
I00
sg5
F0.19607843137254902
sg6
F0.5686274509803921
ssg13
(dp2792
g4
I01
sg5
F0.23529411764705882
sg6
F1.0
ssa(dp2793
g2
(dp2794
g4
I00
sg5
F0.34285714285714286
sg6
F0.7142857142857143
ssg7
(dp2795
g4
I01
sg5
F0.3
sg6
F1.0
ssg9
(dp2796
g4
I00
sg5
F0.8
sg6
F0.9571428571428572
ssg11
(dp2797
g4
I00
sg5
F0.21428571428571427
sg6
F0.6714285714285715
ssg13
(dp2798
g4
I01
sg5
F0.14285714285714285
sg6
F1.0
ssa(dp2799
g2
(dp2800
g4
I00
sg5
F0.33766233766233766
sg6
F0.8571428571428572
ssg7
(dp2801
g4
I01
sg5
F0.3116883116883117
sg6
F1.0
ssg9
(dp2802
g4
I00
sg5
F0.7922077922077922
sg6
F0.987012987012987
ssg11
(dp2803
g4
I00
sg5
F0.15584415584415584
sg6
F0.5324675324675325
ssg13
(dp2804
g4
I01
sg5
F0.11688311688311688
sg6
F1.0
ssa(dp2805
g2
(dp2806
g4
I00
sg5
F0.34210526315789475
sg6
F0.631578947368421
ssg7
(dp2807
g4
I01
sg5
F0.47368421052631576
sg6
F1.0
ssg9
(dp2808
g4
I00
sg5
F0.7894736842105263
sg6
F0.8947368421052632
ssg11
(dp2809
g4
I00
sg5
F0.34210526315789475
sg6
F0.6578947368421053
ssg13
(dp2810
g4
I01
sg5
F0.2894736842105263
sg6
F1.0
ssa(dp2811
g2
(dp2812
g4
I00
sg5
F0.34444444444444444
sg6
F0.8111111111111111
ssg7
(dp2813
g4
I01
sg5
F0.28888888888888886
sg6
F1.0
ssg9
(dp2814
g4
I00
sg5
F0.8
sg6
F0.9222222222222223
ssg11
(dp2815
g4
I00
sg5
F0.14444444444444443
sg6
F0.5888888888888889
ssg13
(dp2816
g4
I01
sg5
F0.1
sg6
F1.0
ssa(dp2817
g2
(dp2818
g4
I00
sg5
F0.3389830508474576
sg6
F0.7966101694915254
ssg7
(dp2819
g4
I01
sg5
F0.3898305084745763
sg6
F1.0
ssg9
(dp2820
g4
I00
sg5
F0.7966101694915254
sg6
F0.9830508474576272
ssg11
(dp2821
g4
I00
sg5
F0.11864406779661017
sg6
F0.35593220338983056
ssg13
(dp2822
g4
I01
sg5
F0.1694915254237288
sg6
F1.0
ssa(dp2823
g2
(dp2824
g4
I00
sg5
F0.3402061855670103
sg6
F0.8969072164948454
ssg7
(dp2825
g4
I01
sg5
F0.26804123711340205
sg6
F1.0
ssg9
(dp2826
g4
I00
sg5
F0.7938144329896907
sg6
F0.979381443298969
ssg11
(dp2827
g4
I00
sg5
F0.13402061855670103
sg6
F0.44329896907216493
ssg13
(dp2828
g4
I01
sg5
F0.09278350515463918
sg6
F1.0
ssa(dp2829
g2
(dp2830
g4
I00
sg5
F0.34285714285714286
sg6
F0.6428571428571428
ssg7
(dp2831
g4
I01
sg5
F0.32857142857142857
sg6
F1.0
ssg9
(dp2832
g4
I00
sg5
F0.8
sg6
F0.9714285714285714
ssg11
(dp2833
g4
I00
sg5
F0.18571428571428572
sg6
F0.5571428571428572
ssg13
(dp2834
g4
I01
sg5
F0.12857142857142856
sg6
F1.0
ssa(dp2835
g2
(dp2836
g4
I00
sg5
F0.3384615384615385
sg6
F0.6615384615384615
ssg7
(dp2837
g4
I01
sg5
F0.3230769230769231
sg6
F1.0
ssg9
(dp2838
g4
I00
sg5
F0.8
sg6
F0.9846153846153847
ssg11
(dp2839
g4
I00
sg5
F0.26153846153846155
sg6
F0.8
ssg13
(dp2840
g4
I01
sg5
F0.13846153846153847
sg6
F1.0
ssa(dp2841
g2
(dp2842
g4
I00
sg5
F0.3333333333333333
sg6
F0.5789473684210527
ssg7
(dp2843
g4
I01
sg5
F0.40350877192982454
sg6
F1.0
ssg9
(dp2844
g4
I00
sg5
F0.7894736842105263
sg6
F0.9824561403508771
ssg11
(dp2845
g4
I00
sg5
F0.19298245614035087
sg6
F0.4385964912280702
ssg13
(dp2846
g4
I01
sg5
F0.15789473684210525
sg6
F1.0
ssa(dp2847
g2
(dp2848
g4
I00
sg5
F0.34782608695652173
sg6
F0.7971014492753623
ssg7
(dp2849
g4
I01
sg5
F0.3188405797101449
sg6
F1.0
ssg9
(dp2850
g4
I00
sg5
F0.7971014492753623
sg6
F0.9130434782608696
ssg11
(dp2851
g4
I00
sg5
F0.2608695652173913
sg6
F0.8840579710144928
ssg13
(dp2852
g4
I01
sg5
F0.14492753623188406
sg6
F1.0
ssa(dp2853
g2
(dp2854
g4
I00
sg5
F0.3387096774193548
sg6
F0.5483870967741935
ssg7
(dp2855
g4
I01
sg5
F0.3870967741935484
sg6
F1.0
ssg9
(dp2856
g4
I00
sg5
F0.7903225806451613
sg6
F0.935483870967742
ssg11
(dp2857
g4
I00
sg5
F0.1774193548387097
sg6
F0.467741935483871
ssg13
(dp2858
g4
I01
sg5
F0.14516129032258066
sg6
F1.0
ssa(dp2859
g2
(dp2860
g4
I00
sg5
F0.34782608695652173
sg6
F0.6086956521739131
ssg7
(dp2861
g4
I01
sg5
F0.3695652173913043
sg6
F1.0
ssg9
(dp2862
g4
I01
sg5
F0.782608695652174
sg6
F1.0
ssg11
(dp2863
g4
I00
sg5
F0.21739130434782608
sg6
F0.6956521739130435
ssg13
(dp2864
g4
I01
sg5
F0.1956521739130435
sg6
F1.0
ssa(dp2865
g2
(dp2866
g4
I00
sg5
F0.34146341463414637
sg6
F0.6585365853658536
ssg7
(dp2867
g4
I01
sg5
F0.4146341463414634
sg6
F1.0
ssg9
(dp2868
g4
I00
sg5
F0.7804878048780488
sg6
F0.926829268292683
ssg11
(dp2869
g4
I00
sg5
F0.3170731707317073
sg6
F0.7804878048780488
ssg13
(dp2870
g4
I01
sg5
F0.24390243902439024
sg6
F1.0
ssa(dp2871
g2
(dp2872
g4
I00
sg5
F0.3472222222222222
sg6
F0.7777777777777778
ssg7
(dp2873
g4
I01
sg5
F0.3194444444444444
sg6
F1.0
ssg9
(dp2874
g4
I01
sg5
F0.7916666666666666
sg6
F1.0
ssg11
(dp2875
g4
I00
sg5
F0.16666666666666666
sg6
F0.4722222222222222
ssg13
(dp2876
g4
I01
sg5
F0.125
sg6
F1.0
ssa(dp2877
g2
(dp2878
g4
I00
sg5
F0.33766233766233766
sg6
F0.7012987012987013
ssg7
(dp2879
g4
I01
sg5
F0.2987012987012987
sg6
F1.0
ssg9
(dp2880
g4
I00
sg5
F0.7922077922077922
sg6
F0.987012987012987
ssg11
(dp2881
g4
I00
sg5
F0.2077922077922078
sg6
F0.5844155844155844
ssg13
(dp2882
g4
I01
sg5
F0.15584415584415584
sg6
F1.0
ssa(dp2883
g2
(dp2884
g4
I00
sg5
F0.34782608695652173
sg6
F0.782608695652174
ssg7
(dp2885
g4
I01
sg5
F0.43478260869565216
sg6
F1.0
ssg9
(dp2886
g4
I00
sg5
F0.782608695652174
sg6
F0.9347826086956522
ssg11
(dp2887
g4
I00
sg5
F0.2608695652173913
sg6
F0.7173913043478262
ssg13
(dp2888
g4
I01
sg5
F0.21739130434782608
sg6
F1.0
ssa(dp2889
g2
(dp2890
g4
I00
sg5
F0.34375
sg6
F0.671875
ssg7
(dp2891
g4
I01
sg5
F0.34375
sg6
F1.0
ssg9
(dp2892
g4
I00
sg5
F0.796875
sg6
F0.9375
ssg11
(dp2893
g4
I00
sg5
F0.21875
sg6
F0.515625
ssg13
(dp2894
g4
I01
sg5
F0.15625
sg6
F1.0
ssa(dp2895
g2
(dp2896
g4
I00
sg5
F0.3333333333333333
sg6
F0.5964912280701755
ssg7
(dp2897
g4
I01
sg5
F0.40350877192982454
sg6
F1.0
ssg9
(dp2898
g4
I00
sg5
F0.7894736842105263
sg6
F0.9473684210526316
ssg11
(dp2899
g4
I00
sg5
F0.24561403508771928
sg6
F0.4736842105263158
ssg13
(dp2900
g4
I01
sg5
F0.15789473684210525
sg6
F1.0
ssa(dp2901
g2
(dp2902
g4
I00
sg5
F0.3333333333333333
sg6
F0.6
ssg7
(dp2903
g4
I01
sg5
F0.4666666666666667
sg6
F1.0
ssg9
(dp2904
g4
I00
sg5
F0.8
sg6
F0.9333333333333333
ssg11
(dp2905
g4
I00
sg5
F0.3
sg6
F0.6333333333333333
ssg13
(dp2906
g4
I01
sg5
F0.36666666666666664
sg6
F1.0
ssa(dp2907
g2
(dp2908
g4
I00
sg5
F0.34545454545454546
sg6
F0.6909090909090909
ssg7
(dp2909
g4
I01
sg5
F0.36363636363636365
sg6
F1.0
ssg9
(dp2910
g4
I01
sg5
F0.8
sg6
F1.0
ssg11
(dp2911
g4
I00
sg5
F0.23636363636363636
sg6
F0.6909090909090909
ssg13
(dp2912
g4
I01
sg5
F0.18181818181818182
sg6
F1.0
ssa(dp2913
g2
(dp2914
g4
I00
sg5
F0.34285714285714286
sg6
F0.8428571428571429
ssg7
(dp2915
g4
I01
sg5
F0.34285714285714286
sg6
F1.0
ssg9
(dp2916
g4
I01
sg5
F0.8
sg6
F1.0
ssg11
(dp2917
g4
I00
sg5
F0.15714285714285714
sg6
F0.4
ssg13
(dp2918
g4
I01
sg5
F0.12857142857142856
sg6
F1.0
ssa(dp2919
g2
(dp2920
g4
I00
sg5
F0.3404255319148936
sg6
F0.5957446808510638
ssg7
(dp2921
g4
I01
sg5
F0.3617021276595745
sg6
F1.0
ssg9
(dp2922
g4
I00
sg5
F0.7872340425531915
sg6
F0.9574468085106383
ssg11
(dp2923
g4
I00
sg5
F0.2765957446808511
sg6
F0.7021276595744681
ssg13
(dp2924
g4
I01
sg5
F0.2127659574468085
sg6
F1.0
ssa(dp2925
g2
(dp2926
g4
I00
sg5
F0.3333333333333333
sg6
F0.6041666666666667
ssg7
(dp2927
g4
I01
sg5
F0.375
sg6
F1.0
ssg9
(dp2928
g4
I00
sg5
F0.7916666666666666
sg6
F0.9791666666666666
ssg11
(dp2929
g4
I00
sg5
F0.1875
sg6
F0.41666666666666663
ssg13
(dp2930
g4
I01
sg5
F0.25
sg6
F1.0
ssa(dp2931
g2
(dp2932
g4
I00
sg5
F0.34210526315789475
sg6
F0.8157894736842105
ssg7
(dp2933
g4
I01
sg5
F0.3026315789473684
sg6
F1.0
ssg9
(dp2934
g4
I00
sg5
F0.7894736842105263
sg6
F0.9868421052631579
ssg11
(dp2935
g4
I00
sg5
F0.19736842105263158
sg6
F0.7763157894736842
ssg13
(dp2936
g4
I01
sg5
F0.13157894736842105
sg6
F1.0
ssa(dp2937
g2
(dp2938
g4
I00
sg5
F0.34782608695652173
sg6
F0.5797101449275363
ssg7
(dp2939
g4
I01
sg5
F0.36231884057971014
sg6
F1.0
ssg9
(dp2940
g4
I01
sg5
F0.7971014492753623
sg6
F1.0
ssg11
(dp2941
g4
I00
sg5
F0.2318840579710145
sg6
F0.6666666666666667
ssg13
(dp2942
g4
I01
sg5
F0.13043478260869565
sg6
F1.0
ssa(dp2943
g2
(dp2944
g4
I00
sg5
F0.3235294117647059
sg6
F0.6470588235294117
ssg7
(dp2945
g4
I00
sg5
F0.47058823529411764
sg6
F0.9705882352941176
ssg9
(dp2946
g4
I00
sg5
F0.7941176470588235
sg6
F0.9705882352941176
ssg11
(dp2947
g4
I00
sg5
F0.17647058823529413
sg6
F0.5
ssg13
(dp2948
g4
I01
sg5
F0.4117647058823529
sg6
F1.0
ssa(dp2949
g2
(dp2950
g4
I00
sg5
F0.33766233766233766
sg6
F0.8051948051948052
ssg7
(dp2951
g4
I01
sg5
F0.3246753246753247
sg6
F1.0
ssg9
(dp2952
g4
I00
sg5
F0.7922077922077922
sg6
F0.974025974025974
ssg11
(dp2953
g4
I00
sg5
F0.15584415584415584
sg6
F0.4285714285714286
ssg13
(dp2954
g4
I01
sg5
F0.12987012987012986
sg6
F1.0
ssa(dp2955
g2
(dp2956
g4
I00
sg5
F0.35
sg6
F0.8
ssg7
(dp2957
g4
I01
sg5
F0.3333333333333333
sg6
F1.0
ssg9
(dp2958
g4
I00
sg5
F0.8
sg6
F0.9833333333333333
ssg11
(dp2959
g4
I00
sg5
F0.2
sg6
F0.6166666666666667
ssg13
(dp2960
g4
I01
sg5
F0.16666666666666666
sg6
F1.0
ssa(dp2961
g2
(dp2962
g4
I00
sg5
F0.3402061855670103
sg6
F0.8762886597938144
ssg7
(dp2963
g4
I01
sg5
F0.30927835051546393
sg6
F1.0
ssg9
(dp2964
g4
I01
sg5
F0.7938144329896907
sg6
F1.0
ssg11
(dp2965
g4
I00
sg5
F0.14432989690721648
sg6
F0.48453608247422686
ssg13
(dp2966
g4
I01
sg5
F0.09278350515463918
sg6
F1.0
ssa(dp2967
g2
(dp2968
g4
I00
sg5
F0.34
sg6
F0.6599999999999999
ssg7
(dp2969
g4
I01
sg5
F0.4
sg6
F1.0
ssg9
(dp2970
g4
I00
sg5
F0.8
sg6
F0.96
ssg11
(dp2971
g4
I00
sg5
F0.32
sg6
F0.72
ssg13
(dp2972
g4
I01
sg5
F0.2
sg6
F1.0
ssa(dp2973
g2
(dp2974
g4
I00
sg5
F0.34615384615384615
sg6
F0.782051282051282
ssg7
(dp2975
g4
I01
sg5
F0.32051282051282054
sg6
F1.0
ssg9
(dp2976
g4
I00
sg5
F0.7948717948717948
sg6
F0.9871794871794872
ssg11
(dp2977
g4
I00
sg5
F0.20512820512820512
sg6
F0.7948717948717949
ssg13
(dp2978
g4
I01
sg5
F0.11538461538461539
sg6
F1.0
ssa(dp2979
g2
(dp2980
g4
I00
sg5
F0.35
sg6
F0.625
ssg7
(dp2981
g4
I00
sg5
F0.425
sg6
F0.975
ssg9
(dp2982
g4
I00
sg5
F0.8
sg6
F0.95
ssg11
(dp2983
g4
I00
sg5
F0.2
sg6
F0.32499999999999996
ssg13
(dp2984
g4
I01
sg5
F0.3
sg6
F1.0
ssa(dp2985
g2
(dp2986
g4
I00
sg5
F0.3402061855670103
sg6
F0.8041237113402062
ssg7
(dp2987
g4
I01
sg5
F0.27835051546391754
sg6
F1.0
ssg9
(dp2988
g4
I00
sg5
F0.7938144329896907
sg6
F0.979381443298969
ssg11
(dp2989
g4
I00
sg5
F0.09278350515463918
sg6
F0.31958762886597936
ssg13
(dp2990
g4
I01
sg5
F0.09278350515463918
sg6
F1.0
ssa(dp2991
g2
(dp2992
g4
I00
sg5
F0.3333333333333333
sg6
F0.5964912280701755
ssg7
(dp2993
g4
I01
sg5
F0.38596491228070173
sg6
F1.0
ssg9
(dp2994
g4
I00
sg5
F0.7894736842105263
sg6
F0.9298245614035088
ssg11
(dp2995
g4
I00
sg5
F0.2982456140350877
sg6
F0.7543859649122807
ssg13
(dp2996
g4
I01
sg5
F0.17543859649122806
sg6
F1.0
ssa(dp2997
g2
(dp2998
g4
I00
sg5
F0.33766233766233766
sg6
F0.922077922077922
ssg7
(dp2999
g4
I01
sg5
F0.3246753246753247
sg6
F1.0
ssg9
(dp3000
g4
I00
sg5
F0.7922077922077922
sg6
F0.987012987012987
ssg11
(dp3001
g4
I00
sg5
F0.11688311688311688
sg6
F0.38961038961038963
ssg13
(dp3002
g4
I01
sg5
F0.11688311688311688
sg6
F1.0
ssa(dp3003
g2
(dp3004
g4
I00
sg5
F0.3411764705882353
sg6
F0.788235294117647
ssg7
(dp3005
g4
I01
sg5
F0.27058823529411763
sg6
F1.0
ssg9
(dp3006
g4
I00
sg5
F0.8
sg6
F0.9882352941176471
ssg11
(dp3007
g4
I00
sg5
F0.11764705882352941
sg6
F0.3176470588235294
ssg13
(dp3008
g4
I01
sg5
F0.11764705882352941
sg6
F1.0
ssa.